
main.elf:     file format elf32-littlearm


Disassembly of section .isr_vector:

08000000 <g_pfnVectors>:
 8000000:	20020000 	andcs	r0, r2, r0
 8000004:	0801089d 	stmdaeq	r1, {r0, r2, r3, r4, r7, fp}
 8000008:	080108e1 	stmdaeq	r1, {r0, r5, r6, r7, fp}
 800000c:	080108e1 	stmdaeq	r1, {r0, r5, r6, r7, fp}
 8000010:	080108e1 	stmdaeq	r1, {r0, r5, r6, r7, fp}
 8000014:	080108e1 	stmdaeq	r1, {r0, r5, r6, r7, fp}
 8000018:	080108e1 	stmdaeq	r1, {r0, r5, r6, r7, fp}
	...
 800002c:	080108e1 	stmdaeq	r1, {r0, r5, r6, r7, fp}
 8000030:	080108e1 	stmdaeq	r1, {r0, r5, r6, r7, fp}
 8000034:	00000000 	andeq	r0, r0, r0
 8000038:	080108e1 	stmdaeq	r1, {r0, r5, r6, r7, fp}
 800003c:	080108e1 	stmdaeq	r1, {r0, r5, r6, r7, fp}
 8000040:	080108e1 	stmdaeq	r1, {r0, r5, r6, r7, fp}
 8000044:	080108e1 	stmdaeq	r1, {r0, r5, r6, r7, fp}
 8000048:	080108e1 	stmdaeq	r1, {r0, r5, r6, r7, fp}
 800004c:	080108e1 	stmdaeq	r1, {r0, r5, r6, r7, fp}
 8000050:	080108e1 	stmdaeq	r1, {r0, r5, r6, r7, fp}
 8000054:	080108e1 	stmdaeq	r1, {r0, r5, r6, r7, fp}
 8000058:	080108e1 	stmdaeq	r1, {r0, r5, r6, r7, fp}
 800005c:	080108e1 	stmdaeq	r1, {r0, r5, r6, r7, fp}
 8000060:	080108e1 	stmdaeq	r1, {r0, r5, r6, r7, fp}
 8000064:	080108e1 	stmdaeq	r1, {r0, r5, r6, r7, fp}
 8000068:	080108e1 	stmdaeq	r1, {r0, r5, r6, r7, fp}
 800006c:	080108e1 	stmdaeq	r1, {r0, r5, r6, r7, fp}
 8000070:	080108e1 	stmdaeq	r1, {r0, r5, r6, r7, fp}
 8000074:	080108e1 	stmdaeq	r1, {r0, r5, r6, r7, fp}
 8000078:	080108e1 	stmdaeq	r1, {r0, r5, r6, r7, fp}
 800007c:	080108e1 	stmdaeq	r1, {r0, r5, r6, r7, fp}
 8000080:	080108e1 	stmdaeq	r1, {r0, r5, r6, r7, fp}
 8000084:	080108e1 	stmdaeq	r1, {r0, r5, r6, r7, fp}
 8000088:	080108e1 	stmdaeq	r1, {r0, r5, r6, r7, fp}
 800008c:	080108e1 	stmdaeq	r1, {r0, r5, r6, r7, fp}
 8000090:	080108e1 	stmdaeq	r1, {r0, r5, r6, r7, fp}
 8000094:	080108e1 	stmdaeq	r1, {r0, r5, r6, r7, fp}
 8000098:	080108e1 	stmdaeq	r1, {r0, r5, r6, r7, fp}
 800009c:	080108e1 	stmdaeq	r1, {r0, r5, r6, r7, fp}
 80000a0:	080108e1 	stmdaeq	r1, {r0, r5, r6, r7, fp}
 80000a4:	080108e1 	stmdaeq	r1, {r0, r5, r6, r7, fp}
 80000a8:	080108e1 	stmdaeq	r1, {r0, r5, r6, r7, fp}
 80000ac:	080108e1 	stmdaeq	r1, {r0, r5, r6, r7, fp}
 80000b0:	08000725 	stmdaeq	r0, {r0, r2, r5, r8, r9, sl}
 80000b4:	080108e1 	stmdaeq	r1, {r0, r5, r6, r7, fp}
 80000b8:	080108e1 	stmdaeq	r1, {r0, r5, r6, r7, fp}
 80000bc:	080108e1 	stmdaeq	r1, {r0, r5, r6, r7, fp}
 80000c0:	080108e1 	stmdaeq	r1, {r0, r5, r6, r7, fp}
 80000c4:	080108e1 	stmdaeq	r1, {r0, r5, r6, r7, fp}
 80000c8:	080108e1 	stmdaeq	r1, {r0, r5, r6, r7, fp}
 80000cc:	080108e1 	stmdaeq	r1, {r0, r5, r6, r7, fp}
 80000d0:	080108e1 	stmdaeq	r1, {r0, r5, r6, r7, fp}
 80000d4:	080108e1 	stmdaeq	r1, {r0, r5, r6, r7, fp}
 80000d8:	080108e1 	stmdaeq	r1, {r0, r5, r6, r7, fp}
 80000dc:	080108e1 	stmdaeq	r1, {r0, r5, r6, r7, fp}
 80000e0:	080108e1 	stmdaeq	r1, {r0, r5, r6, r7, fp}
 80000e4:	080108e1 	stmdaeq	r1, {r0, r5, r6, r7, fp}
 80000e8:	080108e1 	stmdaeq	r1, {r0, r5, r6, r7, fp}
 80000ec:	080108e1 	stmdaeq	r1, {r0, r5, r6, r7, fp}
 80000f0:	080108e1 	stmdaeq	r1, {r0, r5, r6, r7, fp}
 80000f4:	080108e1 	stmdaeq	r1, {r0, r5, r6, r7, fp}
 80000f8:	080108e1 	stmdaeq	r1, {r0, r5, r6, r7, fp}
 80000fc:	080108e1 	stmdaeq	r1, {r0, r5, r6, r7, fp}
 8000100:	080108e1 	stmdaeq	r1, {r0, r5, r6, r7, fp}
 8000104:	080108e1 	stmdaeq	r1, {r0, r5, r6, r7, fp}
 8000108:	080108e1 	stmdaeq	r1, {r0, r5, r6, r7, fp}
 800010c:	080108e1 	stmdaeq	r1, {r0, r5, r6, r7, fp}
 8000110:	080108e1 	stmdaeq	r1, {r0, r5, r6, r7, fp}
 8000114:	080108e1 	stmdaeq	r1, {r0, r5, r6, r7, fp}
 8000118:	080108e1 	stmdaeq	r1, {r0, r5, r6, r7, fp}
 800011c:	080108e1 	stmdaeq	r1, {r0, r5, r6, r7, fp}
 8000120:	080108e1 	stmdaeq	r1, {r0, r5, r6, r7, fp}
 8000124:	080108e1 	stmdaeq	r1, {r0, r5, r6, r7, fp}
 8000128:	080108e1 	stmdaeq	r1, {r0, r5, r6, r7, fp}
 800012c:	080108e1 	stmdaeq	r1, {r0, r5, r6, r7, fp}
 8000130:	080108e1 	stmdaeq	r1, {r0, r5, r6, r7, fp}
 8000134:	080108e1 	stmdaeq	r1, {r0, r5, r6, r7, fp}
 8000138:	080108e1 	stmdaeq	r1, {r0, r5, r6, r7, fp}
 800013c:	080108e1 	stmdaeq	r1, {r0, r5, r6, r7, fp}
 8000140:	080108e1 	stmdaeq	r1, {r0, r5, r6, r7, fp}
 8000144:	080108e1 	stmdaeq	r1, {r0, r5, r6, r7, fp}
 8000148:	080108e1 	stmdaeq	r1, {r0, r5, r6, r7, fp}
 800014c:	080108e1 	stmdaeq	r1, {r0, r5, r6, r7, fp}
 8000150:	080108e1 	stmdaeq	r1, {r0, r5, r6, r7, fp}
 8000154:	080108e1 	stmdaeq	r1, {r0, r5, r6, r7, fp}
 8000158:	080108e1 	stmdaeq	r1, {r0, r5, r6, r7, fp}
 800015c:	080108e1 	stmdaeq	r1, {r0, r5, r6, r7, fp}
 8000160:	080108e1 	stmdaeq	r1, {r0, r5, r6, r7, fp}
 8000164:	080108e1 	stmdaeq	r1, {r0, r5, r6, r7, fp}
 8000168:	080108e1 	stmdaeq	r1, {r0, r5, r6, r7, fp}
 800016c:	080108e1 	stmdaeq	r1, {r0, r5, r6, r7, fp}
 8000170:	080108e1 	stmdaeq	r1, {r0, r5, r6, r7, fp}
 8000174:	080108e1 	stmdaeq	r1, {r0, r5, r6, r7, fp}
 8000178:	080108e1 	stmdaeq	r1, {r0, r5, r6, r7, fp}
 800017c:	080108e1 	stmdaeq	r1, {r0, r5, r6, r7, fp}
 8000180:	080108e1 	stmdaeq	r1, {r0, r5, r6, r7, fp}
 8000184:	080108e1 	stmdaeq	r1, {r0, r5, r6, r7, fp}

Disassembly of section .text:

08000188 <__do_global_dtors_aux>:
 8000188:	b510      	push	{r4, lr}
 800018a:	4c05      	ldr	r4, [pc, #20]	; (80001a0 <__do_global_dtors_aux+0x18>)
 800018c:	7823      	ldrb	r3, [r4, #0]
 800018e:	b933      	cbnz	r3, 800019e <__do_global_dtors_aux+0x16>
 8000190:	4b04      	ldr	r3, [pc, #16]	; (80001a4 <__do_global_dtors_aux+0x1c>)
 8000192:	b113      	cbz	r3, 800019a <__do_global_dtors_aux+0x12>
 8000194:	4804      	ldr	r0, [pc, #16]	; (80001a8 <__do_global_dtors_aux+0x20>)
 8000196:	f3af 8000 	nop.w
 800019a:	2301      	movs	r3, #1
 800019c:	7023      	strb	r3, [r4, #0]
 800019e:	bd10      	pop	{r4, pc}
 80001a0:	20000874 	andcs	r0, r0, r4, ror r8
 80001a4:	00000000 	andeq	r0, r0, r0
 80001a8:	08011744 	stmdaeq	r1, {r2, r6, r8, r9, sl, ip}

080001ac <frame_dummy>:
 80001ac:	4b08      	ldr	r3, [pc, #32]	; (80001d0 <frame_dummy+0x24>)
 80001ae:	b510      	push	{r4, lr}
 80001b0:	b11b      	cbz	r3, 80001ba <frame_dummy+0xe>
 80001b2:	4908      	ldr	r1, [pc, #32]	; (80001d4 <frame_dummy+0x28>)
 80001b4:	4808      	ldr	r0, [pc, #32]	; (80001d8 <frame_dummy+0x2c>)
 80001b6:	f3af 8000 	nop.w
 80001ba:	4808      	ldr	r0, [pc, #32]	; (80001dc <frame_dummy+0x30>)
 80001bc:	6803      	ldr	r3, [r0, #0]
 80001be:	b903      	cbnz	r3, 80001c2 <frame_dummy+0x16>
 80001c0:	bd10      	pop	{r4, pc}
 80001c2:	4b07      	ldr	r3, [pc, #28]	; (80001e0 <frame_dummy+0x34>)
 80001c4:	2b00      	cmp	r3, #0
 80001c6:	d0fb      	beq.n	80001c0 <frame_dummy+0x14>
 80001c8:	e8bd 4010 	ldmia.w	sp!, {r4, lr}
 80001cc:	4718      	bx	r3
 80001ce:	bf00      	nop
 80001d0:	00000000 	andeq	r0, r0, r0
 80001d4:	20000878 	andcs	r0, r0, r8, ror r8
 80001d8:	08011744 	stmdaeq	r1, {r2, r6, r8, r9, sl, ip}
 80001dc:	20000870 	andcs	r0, r0, r0, ror r8
 80001e0:	00000000 	andeq	r0, r0, r0

080001e4 <_mainCRTStartup>:
 80001e4:	4b15      	ldr	r3, [pc, #84]	; (800023c <_mainCRTStartup+0x58>)
 80001e6:	2b00      	cmp	r3, #0
 80001e8:	bf08      	it	eq
 80001ea:	4b13      	ldreq	r3, [pc, #76]	; (8000238 <_mainCRTStartup+0x54>)
 80001ec:	469d      	mov	sp, r3
 80001ee:	f5a3 3a80 	sub.w	sl, r3, #65536	; 0x10000
 80001f2:	2100      	movs	r1, #0
 80001f4:	468b      	mov	fp, r1
 80001f6:	460f      	mov	r7, r1
 80001f8:	4813      	ldr	r0, [pc, #76]	; (8000248 <_mainCRTStartup+0x64>)
 80001fa:	4a14      	ldr	r2, [pc, #80]	; (800024c <_mainCRTStartup+0x68>)
 80001fc:	1a12      	subs	r2, r2, r0
 80001fe:	f010 fa1d 	bl	801063c <memset>
 8000202:	4b0f      	ldr	r3, [pc, #60]	; (8000240 <_mainCRTStartup+0x5c>)
 8000204:	2b00      	cmp	r3, #0
 8000206:	d000      	beq.n	800020a <_mainCRTStartup+0x26>
 8000208:	4798      	blx	r3
 800020a:	4b0e      	ldr	r3, [pc, #56]	; (8000244 <_mainCRTStartup+0x60>)
 800020c:	2b00      	cmp	r3, #0
 800020e:	d000      	beq.n	8000212 <_mainCRTStartup+0x2e>
 8000210:	4798      	blx	r3
 8000212:	2000      	movs	r0, #0
 8000214:	2100      	movs	r1, #0
 8000216:	0004      	movs	r4, r0
 8000218:	000d      	movs	r5, r1
 800021a:	480d      	ldr	r0, [pc, #52]	; (8000250 <_mainCRTStartup+0x6c>)
 800021c:	2800      	cmp	r0, #0
 800021e:	d002      	beq.n	8000226 <_mainCRTStartup+0x42>
 8000220:	480c      	ldr	r0, [pc, #48]	; (8000254 <_mainCRTStartup+0x70>)
 8000222:	f010 facf 	bl	80107c4 <atexit>
 8000226:	f010 f9e1 	bl	80105ec <__libc_init_array>
 800022a:	0020      	movs	r0, r4
 800022c:	0029      	movs	r1, r5
 800022e:	f000 f83d 	bl	80002ac <main>
 8000232:	f010 f9cb 	bl	80105cc <exit>
 8000236:	bf00      	nop
 8000238:	00080000 	andeq	r0, r8, r0
	...
 8000248:	20000874 	andcs	r0, r0, r4, ror r8
 800024c:	200008d0 	ldrdcs	r0, [r0], -r0	; <UNPREDICTABLE>
 8000250:	080107c5 	stmdaeq	r1, {r0, r2, r6, r7, r8, r9, sl}
 8000254:	080107d1 	stmdaeq	r1, {r0, r4, r6, r7, r8, r9, sl}

08000258 <calcFact>:
 8000258:	b580      	push	{r7, lr}
 800025a:	b082      	sub	sp, #8
 800025c:	af00      	add	r7, sp, #0
 800025e:	6078      	str	r0, [r7, #4]
 8000260:	687b      	ldr	r3, [r7, #4]
 8000262:	2b01      	cmp	r3, #1
 8000264:	d101      	bne.n	800026a <calcFact+0x12>
 8000266:	687b      	ldr	r3, [r7, #4]
 8000268:	e008      	b.n	800027c <calcFact+0x24>
 800026a:	687b      	ldr	r3, [r7, #4]
 800026c:	3b01      	subs	r3, #1
 800026e:	4618      	mov	r0, r3
 8000270:	f7ff fff2 	bl	8000258 <calcFact>
 8000274:	4602      	mov	r2, r0
 8000276:	687b      	ldr	r3, [r7, #4]
 8000278:	fb03 f302 	mul.w	r3, r3, r2
 800027c:	4618      	mov	r0, r3
 800027e:	3708      	adds	r7, #8
 8000280:	46bd      	mov	sp, r7
 8000282:	bd80      	pop	{r7, pc}

08000284 <doStuff>:
 8000284:	b480      	push	{r7}
 8000286:	b085      	sub	sp, #20
 8000288:	af00      	add	r7, sp, #0
 800028a:	6078      	str	r0, [r7, #4]
 800028c:	2364      	movs	r3, #100	; 0x64
 800028e:	60fb      	str	r3, [r7, #12]
 8000290:	e002      	b.n	8000298 <doStuff+0x14>
 8000292:	68fb      	ldr	r3, [r7, #12]
 8000294:	3b01      	subs	r3, #1
 8000296:	60fb      	str	r3, [r7, #12]
 8000298:	68fb      	ldr	r3, [r7, #12]
 800029a:	2b00      	cmp	r3, #0
 800029c:	dcf9      	bgt.n	8000292 <doStuff+0xe>
 800029e:	bf00      	nop
 80002a0:	3714      	adds	r7, #20
 80002a2:	46bd      	mov	sp, r7
 80002a4:	f85d 7b04 	ldr.w	r7, [sp], #4
 80002a8:	4770      	bx	lr
 80002aa:	bf00      	nop

080002ac <main>:
 80002ac:	b590      	push	{r4, r7, lr}
 80002ae:	b095      	sub	sp, #84	; 0x54
 80002b0:	af00      	add	r7, sp, #0
 80002b2:	2302      	movs	r3, #2
 80002b4:	64fb      	str	r3, [r7, #76]	; 0x4c
 80002b6:	2300      	movs	r3, #0
 80002b8:	64bb      	str	r3, [r7, #72]	; 0x48
 80002ba:	2300      	movs	r3, #0
 80002bc:	647b      	str	r3, [r7, #68]	; 0x44
 80002be:	f000 f9d7 	bl	8000670 <setupIO>
 80002c2:	f04f 0300 	mov.w	r3, #0
 80002c6:	f04f 0400 	mov.w	r4, #0
 80002ca:	e9c7 3408 	strd	r3, r4, [r7, #32]
 80002ce:	f04f 0300 	mov.w	r3, #0
 80002d2:	4c17      	ldr	r4, [pc, #92]	; (8000330 <main+0x84>)
 80002d4:	e9c7 340a 	strd	r3, r4, [r7, #40]	; 0x28
 80002d8:	2364      	movs	r3, #100	; 0x64
 80002da:	633b      	str	r3, [r7, #48]	; 0x30
 80002dc:	f44f 737a 	mov.w	r3, #1000	; 0x3e8
 80002e0:	637b      	str	r3, [r7, #52]	; 0x34
 80002e2:	2364      	movs	r3, #100	; 0x64
 80002e4:	63bb      	str	r3, [r7, #56]	; 0x38
 80002e6:	f107 0320 	add.w	r3, r7, #32
 80002ea:	4618      	mov	r0, r3
 80002ec:	f000 fa68 	bl	80007c0 <logMap>
 80002f0:	463b      	mov	r3, r7
 80002f2:	4618      	mov	r0, r3
 80002f4:	f000 f954 	bl	80005a0 <initScheduler>
 80002f8:	463b      	mov	r3, r7
 80002fa:	2200      	movs	r2, #0
 80002fc:	490d      	ldr	r1, [pc, #52]	; (8000334 <main+0x88>)
 80002fe:	4618      	mov	r0, r3
 8000300:	f000 f960 	bl	80005c4 <createTask>
 8000304:	4b0c      	ldr	r3, [pc, #48]	; (8000338 <main+0x8c>)
 8000306:	64bb      	str	r3, [r7, #72]	; 0x48
 8000308:	6cbb      	ldr	r3, [r7, #72]	; 0x48
 800030a:	4718      	bx	r3
 800030c:	4b0b      	ldr	r3, [pc, #44]	; (800033c <main+0x90>)
 800030e:	681b      	ldr	r3, [r3, #0]
 8000310:	647b      	str	r3, [r7, #68]	; 0x44
 8000312:	6cba      	ldr	r2, [r7, #72]	; 0x48
 8000314:	6c7b      	ldr	r3, [r7, #68]	; 0x44
 8000316:	429a      	cmp	r2, r3
 8000318:	d101      	bne.n	800031e <main+0x72>
 800031a:	2302      	movs	r3, #2
 800031c:	64bb      	str	r3, [r7, #72]	; 0x48
 800031e:	6cfb      	ldr	r3, [r7, #76]	; 0x4c
 8000320:	3301      	adds	r3, #1
 8000322:	64fb      	str	r3, [r7, #76]	; 0x4c
 8000324:	6cfb      	ldr	r3, [r7, #76]	; 0x4c
 8000326:	2b64      	cmp	r3, #100	; 0x64
 8000328:	ddec      	ble.n	8000304 <main+0x58>
 800032a:	2302      	movs	r3, #2
 800032c:	64fb      	str	r3, [r7, #76]	; 0x4c
 800032e:	e7e9      	b.n	8000304 <main+0x58>
 8000330:	40100000 	andsmi	r0, r0, r0
 8000334:	08000285 	stmdaeq	r0, {r0, r2, r7, r9}
 8000338:	08000259 	stmdaeq	r0, {r0, r3, r4, r6, r9}
 800033c:	20000890 	mulcs	r0, r0, r8

08000340 <SystemInit>:
 8000340:	b580      	push	{r7, lr}
 8000342:	af00      	add	r7, sp, #0
 8000344:	4a16      	ldr	r2, [pc, #88]	; (80003a0 <SystemInit+0x60>)
 8000346:	4b16      	ldr	r3, [pc, #88]	; (80003a0 <SystemInit+0x60>)
 8000348:	f8d3 3088 	ldr.w	r3, [r3, #136]	; 0x88
 800034c:	f443 0370 	orr.w	r3, r3, #15728640	; 0xf00000
 8000350:	f8c2 3088 	str.w	r3, [r2, #136]	; 0x88
 8000354:	4a13      	ldr	r2, [pc, #76]	; (80003a4 <SystemInit+0x64>)
 8000356:	4b13      	ldr	r3, [pc, #76]	; (80003a4 <SystemInit+0x64>)
 8000358:	681b      	ldr	r3, [r3, #0]
 800035a:	f043 0301 	orr.w	r3, r3, #1
 800035e:	6013      	str	r3, [r2, #0]
 8000360:	4b10      	ldr	r3, [pc, #64]	; (80003a4 <SystemInit+0x64>)
 8000362:	2200      	movs	r2, #0
 8000364:	609a      	str	r2, [r3, #8]
 8000366:	4a0f      	ldr	r2, [pc, #60]	; (80003a4 <SystemInit+0x64>)
 8000368:	4b0e      	ldr	r3, [pc, #56]	; (80003a4 <SystemInit+0x64>)
 800036a:	681b      	ldr	r3, [r3, #0]
 800036c:	f023 7384 	bic.w	r3, r3, #17301504	; 0x1080000
 8000370:	f423 3380 	bic.w	r3, r3, #65536	; 0x10000
 8000374:	6013      	str	r3, [r2, #0]
 8000376:	4b0b      	ldr	r3, [pc, #44]	; (80003a4 <SystemInit+0x64>)
 8000378:	4a0b      	ldr	r2, [pc, #44]	; (80003a8 <SystemInit+0x68>)
 800037a:	605a      	str	r2, [r3, #4]
 800037c:	4a09      	ldr	r2, [pc, #36]	; (80003a4 <SystemInit+0x64>)
 800037e:	4b09      	ldr	r3, [pc, #36]	; (80003a4 <SystemInit+0x64>)
 8000380:	681b      	ldr	r3, [r3, #0]
 8000382:	f423 2380 	bic.w	r3, r3, #262144	; 0x40000
 8000386:	6013      	str	r3, [r2, #0]
 8000388:	4b06      	ldr	r3, [pc, #24]	; (80003a4 <SystemInit+0x64>)
 800038a:	2200      	movs	r2, #0
 800038c:	60da      	str	r2, [r3, #12]
 800038e:	f000 f88b 	bl	80004a8 <SetSysClock>
 8000392:	4b03      	ldr	r3, [pc, #12]	; (80003a0 <SystemInit+0x60>)
 8000394:	f04f 6200 	mov.w	r2, #134217728	; 0x8000000
 8000398:	609a      	str	r2, [r3, #8]
 800039a:	bf00      	nop
 800039c:	bd80      	pop	{r7, pc}
 800039e:	bf00      	nop
 80003a0:	e000ed00 	and	lr, r0, r0, lsl #26
 80003a4:	40023800 	andmi	r3, r2, r0, lsl #16
 80003a8:	24003010 	strcs	r3, [r0], #-16

080003ac <SystemCoreClockUpdate>:
 80003ac:	b480      	push	{r7}
 80003ae:	b087      	sub	sp, #28
 80003b0:	af00      	add	r7, sp, #0
 80003b2:	2300      	movs	r3, #0
 80003b4:	613b      	str	r3, [r7, #16]
 80003b6:	2300      	movs	r3, #0
 80003b8:	617b      	str	r3, [r7, #20]
 80003ba:	2302      	movs	r3, #2
 80003bc:	60fb      	str	r3, [r7, #12]
 80003be:	2300      	movs	r3, #0
 80003c0:	60bb      	str	r3, [r7, #8]
 80003c2:	2302      	movs	r3, #2
 80003c4:	607b      	str	r3, [r7, #4]
 80003c6:	4b33      	ldr	r3, [pc, #204]	; (8000494 <SystemCoreClockUpdate+0xe8>)
 80003c8:	689b      	ldr	r3, [r3, #8]
 80003ca:	f003 030c 	and.w	r3, r3, #12
 80003ce:	613b      	str	r3, [r7, #16]
 80003d0:	693b      	ldr	r3, [r7, #16]
 80003d2:	2b04      	cmp	r3, #4
 80003d4:	d007      	beq.n	80003e6 <SystemCoreClockUpdate+0x3a>
 80003d6:	2b08      	cmp	r3, #8
 80003d8:	d009      	beq.n	80003ee <SystemCoreClockUpdate+0x42>
 80003da:	2b00      	cmp	r3, #0
 80003dc:	d13f      	bne.n	800045e <SystemCoreClockUpdate+0xb2>
 80003de:	4b2e      	ldr	r3, [pc, #184]	; (8000498 <SystemCoreClockUpdate+0xec>)
 80003e0:	4a2e      	ldr	r2, [pc, #184]	; (800049c <SystemCoreClockUpdate+0xf0>)
 80003e2:	601a      	str	r2, [r3, #0]
 80003e4:	e03f      	b.n	8000466 <SystemCoreClockUpdate+0xba>
 80003e6:	4b2c      	ldr	r3, [pc, #176]	; (8000498 <SystemCoreClockUpdate+0xec>)
 80003e8:	4a2d      	ldr	r2, [pc, #180]	; (80004a0 <SystemCoreClockUpdate+0xf4>)
 80003ea:	601a      	str	r2, [r3, #0]
 80003ec:	e03b      	b.n	8000466 <SystemCoreClockUpdate+0xba>
 80003ee:	4b29      	ldr	r3, [pc, #164]	; (8000494 <SystemCoreClockUpdate+0xe8>)
 80003f0:	685b      	ldr	r3, [r3, #4]
 80003f2:	f403 0380 	and.w	r3, r3, #4194304	; 0x400000
 80003f6:	0d9b      	lsrs	r3, r3, #22
 80003f8:	60bb      	str	r3, [r7, #8]
 80003fa:	4b26      	ldr	r3, [pc, #152]	; (8000494 <SystemCoreClockUpdate+0xe8>)
 80003fc:	685b      	ldr	r3, [r3, #4]
 80003fe:	f003 033f 	and.w	r3, r3, #63	; 0x3f
 8000402:	607b      	str	r3, [r7, #4]
 8000404:	68bb      	ldr	r3, [r7, #8]
 8000406:	2b00      	cmp	r3, #0
 8000408:	d00d      	beq.n	8000426 <SystemCoreClockUpdate+0x7a>
 800040a:	4a25      	ldr	r2, [pc, #148]	; (80004a0 <SystemCoreClockUpdate+0xf4>)
 800040c:	687b      	ldr	r3, [r7, #4]
 800040e:	fbb2 f2f3 	udiv	r2, r2, r3
 8000412:	4b20      	ldr	r3, [pc, #128]	; (8000494 <SystemCoreClockUpdate+0xe8>)
 8000414:	6859      	ldr	r1, [r3, #4]
 8000416:	f647 73c0 	movw	r3, #32704	; 0x7fc0
 800041a:	400b      	ands	r3, r1
 800041c:	099b      	lsrs	r3, r3, #6
 800041e:	fb03 f302 	mul.w	r3, r3, r2
 8000422:	617b      	str	r3, [r7, #20]
 8000424:	e00c      	b.n	8000440 <SystemCoreClockUpdate+0x94>
 8000426:	4a1d      	ldr	r2, [pc, #116]	; (800049c <SystemCoreClockUpdate+0xf0>)
 8000428:	687b      	ldr	r3, [r7, #4]
 800042a:	fbb2 f2f3 	udiv	r2, r2, r3
 800042e:	4b19      	ldr	r3, [pc, #100]	; (8000494 <SystemCoreClockUpdate+0xe8>)
 8000430:	6859      	ldr	r1, [r3, #4]
 8000432:	f647 73c0 	movw	r3, #32704	; 0x7fc0
 8000436:	400b      	ands	r3, r1
 8000438:	099b      	lsrs	r3, r3, #6
 800043a:	fb03 f302 	mul.w	r3, r3, r2
 800043e:	617b      	str	r3, [r7, #20]
 8000440:	4b14      	ldr	r3, [pc, #80]	; (8000494 <SystemCoreClockUpdate+0xe8>)
 8000442:	685b      	ldr	r3, [r3, #4]
 8000444:	f403 3340 	and.w	r3, r3, #196608	; 0x30000
 8000448:	0c1b      	lsrs	r3, r3, #16
 800044a:	3301      	adds	r3, #1
 800044c:	005b      	lsls	r3, r3, #1
 800044e:	60fb      	str	r3, [r7, #12]
 8000450:	697a      	ldr	r2, [r7, #20]
 8000452:	68fb      	ldr	r3, [r7, #12]
 8000454:	fbb2 f3f3 	udiv	r3, r2, r3
 8000458:	4a0f      	ldr	r2, [pc, #60]	; (8000498 <SystemCoreClockUpdate+0xec>)
 800045a:	6013      	str	r3, [r2, #0]
 800045c:	e003      	b.n	8000466 <SystemCoreClockUpdate+0xba>
 800045e:	4b0e      	ldr	r3, [pc, #56]	; (8000498 <SystemCoreClockUpdate+0xec>)
 8000460:	4a0e      	ldr	r2, [pc, #56]	; (800049c <SystemCoreClockUpdate+0xf0>)
 8000462:	601a      	str	r2, [r3, #0]
 8000464:	bf00      	nop
 8000466:	4b0b      	ldr	r3, [pc, #44]	; (8000494 <SystemCoreClockUpdate+0xe8>)
 8000468:	689b      	ldr	r3, [r3, #8]
 800046a:	f003 03f0 	and.w	r3, r3, #240	; 0xf0
 800046e:	091b      	lsrs	r3, r3, #4
 8000470:	4a0c      	ldr	r2, [pc, #48]	; (80004a4 <SystemCoreClockUpdate+0xf8>)
 8000472:	5cd3      	ldrb	r3, [r2, r3]
 8000474:	b2db      	uxtb	r3, r3
 8000476:	613b      	str	r3, [r7, #16]
 8000478:	4b07      	ldr	r3, [pc, #28]	; (8000498 <SystemCoreClockUpdate+0xec>)
 800047a:	681a      	ldr	r2, [r3, #0]
 800047c:	693b      	ldr	r3, [r7, #16]
 800047e:	fa22 f303 	lsr.w	r3, r2, r3
 8000482:	4a05      	ldr	r2, [pc, #20]	; (8000498 <SystemCoreClockUpdate+0xec>)
 8000484:	6013      	str	r3, [r2, #0]
 8000486:	bf00      	nop
 8000488:	371c      	adds	r7, #28
 800048a:	46bd      	mov	sp, r7
 800048c:	f85d 7b04 	ldr.w	r7, [sp], #4
 8000490:	4770      	bx	lr
 8000492:	bf00      	nop
 8000494:	40023800 	andmi	r3, r2, r0, lsl #16
 8000498:	20000004 	andcs	r0, r0, r4
 800049c:	00f42400 	rscseq	r2, r4, r0, lsl #8
 80004a0:	007a1200 	rsbseq	r1, sl, r0, lsl #4
 80004a4:	20000008 	andcs	r0, r0, r8

080004a8 <SetSysClock>:
 80004a8:	b480      	push	{r7}
 80004aa:	b083      	sub	sp, #12
 80004ac:	af00      	add	r7, sp, #0
 80004ae:	2300      	movs	r3, #0
 80004b0:	607b      	str	r3, [r7, #4]
 80004b2:	2300      	movs	r3, #0
 80004b4:	603b      	str	r3, [r7, #0]
 80004b6:	4a36      	ldr	r2, [pc, #216]	; (8000590 <SetSysClock+0xe8>)
 80004b8:	4b35      	ldr	r3, [pc, #212]	; (8000590 <SetSysClock+0xe8>)
 80004ba:	681b      	ldr	r3, [r3, #0]
 80004bc:	f443 3380 	orr.w	r3, r3, #65536	; 0x10000
 80004c0:	6013      	str	r3, [r2, #0]
 80004c2:	4b33      	ldr	r3, [pc, #204]	; (8000590 <SetSysClock+0xe8>)
 80004c4:	681b      	ldr	r3, [r3, #0]
 80004c6:	f403 3300 	and.w	r3, r3, #131072	; 0x20000
 80004ca:	603b      	str	r3, [r7, #0]
 80004cc:	687b      	ldr	r3, [r7, #4]
 80004ce:	3301      	adds	r3, #1
 80004d0:	607b      	str	r3, [r7, #4]
 80004d2:	683b      	ldr	r3, [r7, #0]
 80004d4:	2b00      	cmp	r3, #0
 80004d6:	d103      	bne.n	80004e0 <SetSysClock+0x38>
 80004d8:	687b      	ldr	r3, [r7, #4]
 80004da:	f5b3 6fa0 	cmp.w	r3, #1280	; 0x500
 80004de:	d1f0      	bne.n	80004c2 <SetSysClock+0x1a>
 80004e0:	4b2b      	ldr	r3, [pc, #172]	; (8000590 <SetSysClock+0xe8>)
 80004e2:	681b      	ldr	r3, [r3, #0]
 80004e4:	f403 3300 	and.w	r3, r3, #131072	; 0x20000
 80004e8:	2b00      	cmp	r3, #0
 80004ea:	d002      	beq.n	80004f2 <SetSysClock+0x4a>
 80004ec:	2301      	movs	r3, #1
 80004ee:	603b      	str	r3, [r7, #0]
 80004f0:	e001      	b.n	80004f6 <SetSysClock+0x4e>
 80004f2:	2300      	movs	r3, #0
 80004f4:	603b      	str	r3, [r7, #0]
 80004f6:	683b      	ldr	r3, [r7, #0]
 80004f8:	2b01      	cmp	r3, #1
 80004fa:	d142      	bne.n	8000582 <SetSysClock+0xda>
 80004fc:	4a24      	ldr	r2, [pc, #144]	; (8000590 <SetSysClock+0xe8>)
 80004fe:	4b24      	ldr	r3, [pc, #144]	; (8000590 <SetSysClock+0xe8>)
 8000500:	6c1b      	ldr	r3, [r3, #64]	; 0x40
 8000502:	f043 5380 	orr.w	r3, r3, #268435456	; 0x10000000
 8000506:	6413      	str	r3, [r2, #64]	; 0x40
 8000508:	4a22      	ldr	r2, [pc, #136]	; (8000594 <SetSysClock+0xec>)
 800050a:	4b22      	ldr	r3, [pc, #136]	; (8000594 <SetSysClock+0xec>)
 800050c:	681b      	ldr	r3, [r3, #0]
 800050e:	f443 4340 	orr.w	r3, r3, #49152	; 0xc000
 8000512:	6013      	str	r3, [r2, #0]
 8000514:	4a1e      	ldr	r2, [pc, #120]	; (8000590 <SetSysClock+0xe8>)
 8000516:	4b1e      	ldr	r3, [pc, #120]	; (8000590 <SetSysClock+0xe8>)
 8000518:	689b      	ldr	r3, [r3, #8]
 800051a:	6093      	str	r3, [r2, #8]
 800051c:	4a1c      	ldr	r2, [pc, #112]	; (8000590 <SetSysClock+0xe8>)
 800051e:	4b1c      	ldr	r3, [pc, #112]	; (8000590 <SetSysClock+0xe8>)
 8000520:	689b      	ldr	r3, [r3, #8]
 8000522:	f443 4300 	orr.w	r3, r3, #32768	; 0x8000
 8000526:	6093      	str	r3, [r2, #8]
 8000528:	4a19      	ldr	r2, [pc, #100]	; (8000590 <SetSysClock+0xe8>)
 800052a:	4b19      	ldr	r3, [pc, #100]	; (8000590 <SetSysClock+0xe8>)
 800052c:	689b      	ldr	r3, [r3, #8]
 800052e:	f443 53a0 	orr.w	r3, r3, #5120	; 0x1400
 8000532:	6093      	str	r3, [r2, #8]
 8000534:	4b16      	ldr	r3, [pc, #88]	; (8000590 <SetSysClock+0xe8>)
 8000536:	4a18      	ldr	r2, [pc, #96]	; (8000598 <SetSysClock+0xf0>)
 8000538:	605a      	str	r2, [r3, #4]
 800053a:	4a15      	ldr	r2, [pc, #84]	; (8000590 <SetSysClock+0xe8>)
 800053c:	4b14      	ldr	r3, [pc, #80]	; (8000590 <SetSysClock+0xe8>)
 800053e:	681b      	ldr	r3, [r3, #0]
 8000540:	f043 7380 	orr.w	r3, r3, #16777216	; 0x1000000
 8000544:	6013      	str	r3, [r2, #0]
 8000546:	bf00      	nop
 8000548:	4b11      	ldr	r3, [pc, #68]	; (8000590 <SetSysClock+0xe8>)
 800054a:	681b      	ldr	r3, [r3, #0]
 800054c:	f003 7300 	and.w	r3, r3, #33554432	; 0x2000000
 8000550:	2b00      	cmp	r3, #0
 8000552:	d0f9      	beq.n	8000548 <SetSysClock+0xa0>
 8000554:	4b11      	ldr	r3, [pc, #68]	; (800059c <SetSysClock+0xf4>)
 8000556:	f240 6205 	movw	r2, #1541	; 0x605
 800055a:	601a      	str	r2, [r3, #0]
 800055c:	4a0c      	ldr	r2, [pc, #48]	; (8000590 <SetSysClock+0xe8>)
 800055e:	4b0c      	ldr	r3, [pc, #48]	; (8000590 <SetSysClock+0xe8>)
 8000560:	689b      	ldr	r3, [r3, #8]
 8000562:	f023 0303 	bic.w	r3, r3, #3
 8000566:	6093      	str	r3, [r2, #8]
 8000568:	4a09      	ldr	r2, [pc, #36]	; (8000590 <SetSysClock+0xe8>)
 800056a:	4b09      	ldr	r3, [pc, #36]	; (8000590 <SetSysClock+0xe8>)
 800056c:	689b      	ldr	r3, [r3, #8]
 800056e:	f043 0302 	orr.w	r3, r3, #2
 8000572:	6093      	str	r3, [r2, #8]
 8000574:	bf00      	nop
 8000576:	4b06      	ldr	r3, [pc, #24]	; (8000590 <SetSysClock+0xe8>)
 8000578:	689b      	ldr	r3, [r3, #8]
 800057a:	f003 030c 	and.w	r3, r3, #12
 800057e:	2b08      	cmp	r3, #8
 8000580:	d1f9      	bne.n	8000576 <SetSysClock+0xce>
 8000582:	bf00      	nop
 8000584:	370c      	adds	r7, #12
 8000586:	46bd      	mov	sp, r7
 8000588:	f85d 7b04 	ldr.w	r7, [sp], #4
 800058c:	4770      	bx	lr
 800058e:	bf00      	nop
 8000590:	40023800 	andmi	r3, r2, r0, lsl #16
 8000594:	40007000 	andmi	r7, r0, r0
 8000598:	07405408 	strbeq	r5, [r0, -r8, lsl #8]
 800059c:	40023c00 	andmi	r3, r2, r0, lsl #24

080005a0 <initScheduler>:
 80005a0:	b480      	push	{r7}
 80005a2:	b083      	sub	sp, #12
 80005a4:	af00      	add	r7, sp, #0
 80005a6:	6078      	str	r0, [r7, #4]
 80005a8:	687b      	ldr	r3, [r7, #4]
 80005aa:	2200      	movs	r2, #0
 80005ac:	601a      	str	r2, [r3, #0]
 80005ae:	687b      	ldr	r3, [r7, #4]
 80005b0:	2200      	movs	r2, #0
 80005b2:	615a      	str	r2, [r3, #20]
 80005b4:	2300      	movs	r3, #0
 80005b6:	4618      	mov	r0, r3
 80005b8:	370c      	adds	r7, #12
 80005ba:	46bd      	mov	sp, r7
 80005bc:	f85d 7b04 	ldr.w	r7, [sp], #4
 80005c0:	4770      	bx	lr
 80005c2:	bf00      	nop

080005c4 <createTask>:
 80005c4:	b580      	push	{r7, lr}
 80005c6:	b086      	sub	sp, #24
 80005c8:	af00      	add	r7, sp, #0
 80005ca:	60f8      	str	r0, [r7, #12]
 80005cc:	60b9      	str	r1, [r7, #8]
 80005ce:	607a      	str	r2, [r7, #4]
 80005d0:	2004      	movs	r0, #4
 80005d2:	f010 fc3b 	bl	8010e4c <malloc>
 80005d6:	4603      	mov	r3, r0
 80005d8:	617b      	str	r3, [r7, #20]
 80005da:	68fb      	ldr	r3, [r7, #12]
 80005dc:	685a      	ldr	r2, [r3, #4]
 80005de:	68fb      	ldr	r3, [r7, #12]
 80005e0:	681b      	ldr	r3, [r3, #0]
 80005e2:	68f9      	ldr	r1, [r7, #12]
 80005e4:	6889      	ldr	r1, [r1, #8]
 80005e6:	fb01 f303 	mul.w	r3, r1, r3
 80005ea:	1ad2      	subs	r2, r2, r3
 80005ec:	697b      	ldr	r3, [r7, #20]
 80005ee:	605a      	str	r2, [r3, #4]
 80005f0:	68fb      	ldr	r3, [r7, #12]
 80005f2:	68da      	ldr	r2, [r3, #12]
 80005f4:	68fb      	ldr	r3, [r7, #12]
 80005f6:	681b      	ldr	r3, [r3, #0]
 80005f8:	68f9      	ldr	r1, [r7, #12]
 80005fa:	6909      	ldr	r1, [r1, #16]
 80005fc:	fb01 f303 	mul.w	r3, r1, r3
 8000600:	441a      	add	r2, r3
 8000602:	697b      	ldr	r3, [r7, #20]
 8000604:	609a      	str	r2, [r3, #8]
 8000606:	68ba      	ldr	r2, [r7, #8]
 8000608:	697b      	ldr	r3, [r7, #20]
 800060a:	60da      	str	r2, [r3, #12]
 800060c:	697b      	ldr	r3, [r7, #20]
 800060e:	687a      	ldr	r2, [r7, #4]
 8000610:	611a      	str	r2, [r3, #16]
 8000612:	697a      	ldr	r2, [r7, #20]
 8000614:	7813      	ldrb	r3, [r2, #0]
 8000616:	f36f 0300 	bfc	r3, #0, #1
 800061a:	7013      	strb	r3, [r2, #0]
 800061c:	697a      	ldr	r2, [r7, #20]
 800061e:	7813      	ldrb	r3, [r2, #0]
 8000620:	f36f 0341 	bfc	r3, #1, #1
 8000624:	7013      	strb	r3, [r2, #0]
 8000626:	68fb      	ldr	r3, [r7, #12]
 8000628:	695b      	ldr	r3, [r3, #20]
 800062a:	2b00      	cmp	r3, #0
 800062c:	d109      	bne.n	8000642 <createTask+0x7e>
 800062e:	68fb      	ldr	r3, [r7, #12]
 8000630:	697a      	ldr	r2, [r7, #20]
 8000632:	615a      	str	r2, [r3, #20]
 8000634:	68fb      	ldr	r3, [r7, #12]
 8000636:	697a      	ldr	r2, [r7, #20]
 8000638:	61da      	str	r2, [r3, #28]
 800063a:	697b      	ldr	r3, [r7, #20]
 800063c:	697a      	ldr	r2, [r7, #20]
 800063e:	615a      	str	r2, [r3, #20]
 8000640:	e00a      	b.n	8000658 <createTask+0x94>
 8000642:	68fb      	ldr	r3, [r7, #12]
 8000644:	695a      	ldr	r2, [r3, #20]
 8000646:	697b      	ldr	r3, [r7, #20]
 8000648:	615a      	str	r2, [r3, #20]
 800064a:	68fb      	ldr	r3, [r7, #12]
 800064c:	69db      	ldr	r3, [r3, #28]
 800064e:	697a      	ldr	r2, [r7, #20]
 8000650:	615a      	str	r2, [r3, #20]
 8000652:	68fb      	ldr	r3, [r7, #12]
 8000654:	697a      	ldr	r2, [r7, #20]
 8000656:	61da      	str	r2, [r3, #28]
 8000658:	68fb      	ldr	r3, [r7, #12]
 800065a:	681b      	ldr	r3, [r3, #0]
 800065c:	1c5a      	adds	r2, r3, #1
 800065e:	68fb      	ldr	r3, [r7, #12]
 8000660:	601a      	str	r2, [r3, #0]
 8000662:	68fb      	ldr	r3, [r7, #12]
 8000664:	681b      	ldr	r3, [r3, #0]
 8000666:	4618      	mov	r0, r3
 8000668:	3718      	adds	r7, #24
 800066a:	46bd      	mov	sp, r7
 800066c:	bd80      	pop	{r7, pc}
 800066e:	bf00      	nop

08000670 <setupIO>:
 8000670:	b580      	push	{r7, lr}
 8000672:	b086      	sub	sp, #24
 8000674:	af00      	add	r7, sp, #0
 8000676:	f009 fc1b 	bl	8009eb0 <RCC_DeInit>
 800067a:	2101      	movs	r1, #1
 800067c:	2008      	movs	r0, #8
 800067e:	f009 ff21 	bl	800a4c4 <RCC_AHB1PeriphClockCmd>
 8000682:	f44f 4370 	mov.w	r3, #61440	; 0xf000
 8000686:	613b      	str	r3, [r7, #16]
 8000688:	2301      	movs	r3, #1
 800068a:	753b      	strb	r3, [r7, #20]
 800068c:	2300      	movs	r3, #0
 800068e:	757b      	strb	r3, [r7, #21]
 8000690:	2300      	movs	r3, #0
 8000692:	75bb      	strb	r3, [r7, #22]
 8000694:	2300      	movs	r3, #0
 8000696:	75fb      	strb	r3, [r7, #23]
 8000698:	f107 0310 	add.w	r3, r7, #16
 800069c:	4619      	mov	r1, r3
 800069e:	4820      	ldr	r0, [pc, #128]	; (8000720 <setupIO+0xb0>)
 80006a0:	f007 fe56 	bl	8008350 <GPIO_Init>
 80006a4:	2101      	movs	r1, #1
 80006a6:	2001      	movs	r0, #1
 80006a8:	f009 ff6c 	bl	800a584 <RCC_APB1PeriphClockCmd>
 80006ac:	1d3b      	adds	r3, r7, #4
 80006ae:	2200      	movs	r2, #0
 80006b0:	601a      	str	r2, [r3, #0]
 80006b2:	605a      	str	r2, [r3, #4]
 80006b4:	609a      	str	r2, [r3, #8]
 80006b6:	2340      	movs	r3, #64	; 0x40
 80006b8:	80bb      	strh	r3, [r7, #4]
 80006ba:	2300      	movs	r3, #0
 80006bc:	80fb      	strh	r3, [r7, #6]
 80006be:	f248 032d 	movw	r3, #32813	; 0x802d
 80006c2:	60bb      	str	r3, [r7, #8]
 80006c4:	f44f 7300 	mov.w	r3, #512	; 0x200
 80006c8:	81bb      	strh	r3, [r7, #12]
 80006ca:	1d3b      	adds	r3, r7, #4
 80006cc:	4619      	mov	r1, r3
 80006ce:	f04f 4080 	mov.w	r0, #1073741824	; 0x40000000
 80006d2:	f00c fd0f 	bl	800d0f4 <TIM_TimeBaseInit>
 80006d6:	2201      	movs	r2, #1
 80006d8:	2101      	movs	r1, #1
 80006da:	f04f 4080 	mov.w	r0, #1073741824	; 0x40000000
 80006de:	f00d fe63 	bl	800e3a8 <TIM_ITConfig>
 80006e2:	2101      	movs	r1, #1
 80006e4:	f04f 4080 	mov.w	r0, #1073741824	; 0x40000000
 80006e8:	f00d feea 	bl	800e4c0 <TIM_ClearITPendingBit>
 80006ec:	f44f 7040 	mov.w	r0, #768	; 0x300
 80006f0:	f000 fa38 	bl	8000b64 <NVIC_PriorityGroupConfig>
 80006f4:	231c      	movs	r3, #28
 80006f6:	703b      	strb	r3, [r7, #0]
 80006f8:	2303      	movs	r3, #3
 80006fa:	707b      	strb	r3, [r7, #1]
 80006fc:	2300      	movs	r3, #0
 80006fe:	70bb      	strb	r3, [r7, #2]
 8000700:	2301      	movs	r3, #1
 8000702:	70fb      	strb	r3, [r7, #3]
 8000704:	463b      	mov	r3, r7
 8000706:	4618      	mov	r0, r3
 8000708:	f000 fa40 	bl	8000b8c <NVIC_Init>
 800070c:	2101      	movs	r1, #1
 800070e:	f04f 4080 	mov.w	r0, #1073741824	; 0x40000000
 8000712:	f00c fe73 	bl	800d3fc <TIM_Cmd>
 8000716:	2300      	movs	r3, #0
 8000718:	4618      	mov	r0, r3
 800071a:	3718      	adds	r7, #24
 800071c:	46bd      	mov	sp, r7
 800071e:	bd80      	pop	{r7, pc}
 8000720:	40020c00 	andmi	r0, r2, r0, lsl #24

08000724 <TIM2_IRQHandler>:
 8000724:	b580      	push	{r7, lr}
 8000726:	b082      	sub	sp, #8
 8000728:	af00      	add	r7, sp, #0
 800072a:	2300      	movs	r3, #0
 800072c:	607b      	str	r3, [r7, #4]
 800072e:	2300      	movs	r3, #0
 8000730:	603b      	str	r3, [r7, #0]
 8000732:	2101      	movs	r1, #1
 8000734:	f04f 4080 	mov.w	r0, #1073741824	; 0x40000000
 8000738:	f00d fe98 	bl	800e46c <TIM_GetITStatus>
 800073c:	4603      	mov	r3, r0
 800073e:	2b00      	cmp	r3, #0
 8000740:	d033      	beq.n	80007aa <TIM2_IRQHandler+0x86>
 8000742:	2101      	movs	r1, #1
 8000744:	f04f 4080 	mov.w	r0, #1073741824	; 0x40000000
 8000748:	f00d feba 	bl	800e4c0 <TIM_ClearITPendingBit>
 800074c:	2100      	movs	r1, #0
 800074e:	f04f 4080 	mov.w	r0, #1073741824	; 0x40000000
 8000752:	f00c fe53 	bl	800d3fc <TIM_Cmd>
 8000756:	e92d 0ff0 	stmdb	sp!, {r4, r5, r6, r7, r8, r9, sl, fp}
 800075a:	466b      	mov	r3, sp
 800075c:	607b      	str	r3, [r7, #4]
 800075e:	4673      	mov	r3, lr
 8000760:	603b      	str	r3, [r7, #0]
 8000762:	4a14      	ldr	r2, [pc, #80]	; (80007b4 <TIM2_IRQHandler+0x90>)
 8000764:	687b      	ldr	r3, [r7, #4]
 8000766:	6013      	str	r3, [r2, #0]
 8000768:	687b      	ldr	r3, [r7, #4]
 800076a:	469d      	mov	sp, r3
 800076c:	e8bd 0ff0 	ldmia.w	sp!, {r4, r5, r6, r7, r8, r9, sl, fp}
 8000770:	4b11      	ldr	r3, [pc, #68]	; (80007b8 <TIM2_IRQHandler+0x94>)
 8000772:	881b      	ldrh	r3, [r3, #0]
 8000774:	b29b      	uxth	r3, r3
 8000776:	085b      	lsrs	r3, r3, #1
 8000778:	b29a      	uxth	r2, r3
 800077a:	4b0f      	ldr	r3, [pc, #60]	; (80007b8 <TIM2_IRQHandler+0x94>)
 800077c:	801a      	strh	r2, [r3, #0]
 800077e:	4b0e      	ldr	r3, [pc, #56]	; (80007b8 <TIM2_IRQHandler+0x94>)
 8000780:	881b      	ldrh	r3, [r3, #0]
 8000782:	b29b      	uxth	r3, r3
 8000784:	f5b3 5f80 	cmp.w	r3, #4096	; 0x1000
 8000788:	d203      	bcs.n	8000792 <TIM2_IRQHandler+0x6e>
 800078a:	4b0b      	ldr	r3, [pc, #44]	; (80007b8 <TIM2_IRQHandler+0x94>)
 800078c:	f44f 4200 	mov.w	r2, #32768	; 0x8000
 8000790:	801a      	strh	r2, [r3, #0]
 8000792:	4b09      	ldr	r3, [pc, #36]	; (80007b8 <TIM2_IRQHandler+0x94>)
 8000794:	881b      	ldrh	r3, [r3, #0]
 8000796:	b29b      	uxth	r3, r3
 8000798:	4619      	mov	r1, r3
 800079a:	4808      	ldr	r0, [pc, #32]	; (80007bc <TIM2_IRQHandler+0x98>)
 800079c:	f007 ff2a 	bl	80085f4 <GPIO_Write>
 80007a0:	2101      	movs	r1, #1
 80007a2:	f04f 4080 	mov.w	r0, #1073741824	; 0x40000000
 80007a6:	f00c fe29 	bl	800d3fc <TIM_Cmd>
 80007aa:	bf00      	nop
 80007ac:	3708      	adds	r7, #8
 80007ae:	46bd      	mov	sp, r7
 80007b0:	bd80      	pop	{r7, pc}
 80007b2:	bf00      	nop
 80007b4:	20000890 	mulcs	r0, r0, r8
 80007b8:	20000018 	andcs	r0, r0, r8, lsl r0
 80007bc:	40020c00 	andmi	r0, r2, r0, lsl #24

080007c0 <logMap>:
 80007c0:	b5b0      	push	{r4, r5, r7, lr}
 80007c2:	b08c      	sub	sp, #48	; 0x30
 80007c4:	af00      	add	r7, sp, #0
 80007c6:	6078      	str	r0, [r7, #4]
 80007c8:	687b      	ldr	r3, [r7, #4]
 80007ca:	61bb      	str	r3, [r7, #24]
 80007cc:	69bb      	ldr	r3, [r7, #24]
 80007ce:	e9d3 0102 	ldrd	r0, r1, [r3, #8]
 80007d2:	69bb      	ldr	r3, [r7, #24]
 80007d4:	e9d3 3400 	ldrd	r3, r4, [r3]
 80007d8:	461a      	mov	r2, r3
 80007da:	4623      	mov	r3, r4
 80007dc:	f00e ff2c 	bl	800f638 <__aeabi_dsub>
 80007e0:	4603      	mov	r3, r0
 80007e2:	460c      	mov	r4, r1
 80007e4:	4625      	mov	r5, r4
 80007e6:	461c      	mov	r4, r3
 80007e8:	69bb      	ldr	r3, [r7, #24]
 80007ea:	691b      	ldr	r3, [r3, #16]
 80007ec:	4618      	mov	r0, r3
 80007ee:	f00f f871 	bl	800f8d4 <__aeabi_i2d>
 80007f2:	f04f 0200 	mov.w	r2, #0
 80007f6:	4b42      	ldr	r3, [pc, #264]	; (8000900 <logMap+0x140>)
 80007f8:	f00e ff1e 	bl	800f638 <__aeabi_dsub>
 80007fc:	4602      	mov	r2, r0
 80007fe:	460b      	mov	r3, r1
 8000800:	4620      	mov	r0, r4
 8000802:	4629      	mov	r1, r5
 8000804:	f00f f9f6 	bl	800fbf4 <__aeabi_ddiv>
 8000808:	4603      	mov	r3, r0
 800080a:	460c      	mov	r4, r1
 800080c:	e9c7 3404 	strd	r3, r4, [r7, #16]
 8000810:	69bb      	ldr	r3, [r7, #24]
 8000812:	691b      	ldr	r3, [r3, #16]
 8000814:	461a      	mov	r2, r3
 8000816:	69bb      	ldr	r3, [r7, #24]
 8000818:	699b      	ldr	r3, [r3, #24]
 800081a:	fb03 f302 	mul.w	r3, r3, r2
 800081e:	00db      	lsls	r3, r3, #3
 8000820:	4618      	mov	r0, r3
 8000822:	f010 fb13 	bl	8010e4c <malloc>
 8000826:	4603      	mov	r3, r0
 8000828:	461a      	mov	r2, r3
 800082a:	69bb      	ldr	r3, [r7, #24]
 800082c:	61da      	str	r2, [r3, #28]
 800082e:	2300      	movs	r3, #0
 8000830:	627b      	str	r3, [r7, #36]	; 0x24
 8000832:	e05e      	b.n	80008f2 <logMap+0x132>
 8000834:	f04f 0300 	mov.w	r3, #0
 8000838:	4c32      	ldr	r4, [pc, #200]	; (8000904 <logMap+0x144>)
 800083a:	e9c7 340a 	strd	r3, r4, [r7, #40]	; 0x28
 800083e:	69bb      	ldr	r3, [r7, #24]
 8000840:	e9d3 4500 	ldrd	r4, r5, [r3]
 8000844:	6a78      	ldr	r0, [r7, #36]	; 0x24
 8000846:	f00f f845 	bl	800f8d4 <__aeabi_i2d>
 800084a:	e9d7 2304 	ldrd	r2, r3, [r7, #16]
 800084e:	f00f f8a7 	bl	800f9a0 <__aeabi_dmul>
 8000852:	4602      	mov	r2, r0
 8000854:	460b      	mov	r3, r1
 8000856:	4620      	mov	r0, r4
 8000858:	4629      	mov	r1, r5
 800085a:	f00e feef 	bl	800f63c <__adddf3>
 800085e:	4603      	mov	r3, r0
 8000860:	460c      	mov	r4, r1
 8000862:	e9c7 3402 	strd	r3, r4, [r7, #8]
 8000866:	2300      	movs	r3, #0
 8000868:	623b      	str	r3, [r7, #32]
 800086a:	e03a      	b.n	80008e2 <logMap+0x122>
 800086c:	e9d7 230a 	ldrd	r2, r3, [r7, #40]	; 0x28
 8000870:	e9d7 0102 	ldrd	r0, r1, [r7, #8]
 8000874:	f00f f894 	bl	800f9a0 <__aeabi_dmul>
 8000878:	4603      	mov	r3, r0
 800087a:	460c      	mov	r4, r1
 800087c:	4625      	mov	r5, r4
 800087e:	461c      	mov	r4, r3
 8000880:	e9d7 230a 	ldrd	r2, r3, [r7, #40]	; 0x28
 8000884:	f04f 0000 	mov.w	r0, #0
 8000888:	491d      	ldr	r1, [pc, #116]	; (8000900 <logMap+0x140>)
 800088a:	f00e fed5 	bl	800f638 <__aeabi_dsub>
 800088e:	4602      	mov	r2, r0
 8000890:	460b      	mov	r3, r1
 8000892:	4620      	mov	r0, r4
 8000894:	4629      	mov	r1, r5
 8000896:	f00f f883 	bl	800f9a0 <__aeabi_dmul>
 800089a:	4603      	mov	r3, r0
 800089c:	460c      	mov	r4, r1
 800089e:	e9c7 340a 	strd	r3, r4, [r7, #40]	; 0x28
 80008a2:	69bb      	ldr	r3, [r7, #24]
 80008a4:	695a      	ldr	r2, [r3, #20]
 80008a6:	69bb      	ldr	r3, [r7, #24]
 80008a8:	699b      	ldr	r3, [r3, #24]
 80008aa:	1ad2      	subs	r2, r2, r3
 80008ac:	6a3b      	ldr	r3, [r7, #32]
 80008ae:	429a      	cmp	r2, r3
 80008b0:	dc12      	bgt.n	80008d8 <logMap+0x118>
 80008b2:	69bb      	ldr	r3, [r7, #24]
 80008b4:	69da      	ldr	r2, [r3, #28]
 80008b6:	69bb      	ldr	r3, [r7, #24]
 80008b8:	699b      	ldr	r3, [r3, #24]
 80008ba:	6a79      	ldr	r1, [r7, #36]	; 0x24
 80008bc:	fb01 f103 	mul.w	r1, r1, r3
 80008c0:	69fb      	ldr	r3, [r7, #28]
 80008c2:	440b      	add	r3, r1
 80008c4:	00db      	lsls	r3, r3, #3
 80008c6:	441a      	add	r2, r3
 80008c8:	e9d7 340a 	ldrd	r3, r4, [r7, #40]	; 0x28
 80008cc:	e9c2 3400 	strd	r3, r4, [r2]
 80008d0:	69fb      	ldr	r3, [r7, #28]
 80008d2:	3301      	adds	r3, #1
 80008d4:	61fb      	str	r3, [r7, #28]
 80008d6:	e001      	b.n	80008dc <logMap+0x11c>
 80008d8:	2300      	movs	r3, #0
 80008da:	61fb      	str	r3, [r7, #28]
 80008dc:	6a3b      	ldr	r3, [r7, #32]
 80008de:	3301      	adds	r3, #1
 80008e0:	623b      	str	r3, [r7, #32]
 80008e2:	69bb      	ldr	r3, [r7, #24]
 80008e4:	695a      	ldr	r2, [r3, #20]
 80008e6:	6a3b      	ldr	r3, [r7, #32]
 80008e8:	429a      	cmp	r2, r3
 80008ea:	dcbf      	bgt.n	800086c <logMap+0xac>
 80008ec:	6a7b      	ldr	r3, [r7, #36]	; 0x24
 80008ee:	3301      	adds	r3, #1
 80008f0:	627b      	str	r3, [r7, #36]	; 0x24
 80008f2:	69bb      	ldr	r3, [r7, #24]
 80008f4:	691a      	ldr	r2, [r3, #16]
 80008f6:	6a7b      	ldr	r3, [r7, #36]	; 0x24
 80008f8:	429a      	cmp	r2, r3
 80008fa:	dc9b      	bgt.n	8000834 <logMap+0x74>
 80008fc:	e7fe      	b.n	80008fc <logMap+0x13c>
 80008fe:	bf00      	nop
 8000900:	3ff00000 	svccc	0x00f00000	; IMB
 8000904:	3fe00000 	svccc	0x00e00000

08000908 <mandelbrot>:
 8000908:	b5f0      	push	{r4, r5, r6, r7, lr}
 800090a:	b0a3      	sub	sp, #140	; 0x8c
 800090c:	af00      	add	r7, sp, #0
 800090e:	6078      	str	r0, [r7, #4]
 8000910:	687b      	ldr	r3, [r7, #4]
 8000912:	677b      	str	r3, [r7, #116]	; 0x74
 8000914:	6f7b      	ldr	r3, [r7, #116]	; 0x74
 8000916:	e9d3 3400 	ldrd	r3, r4, [r3]
 800091a:	e9c7 341a 	strd	r3, r4, [r7, #104]	; 0x68
 800091e:	6f7b      	ldr	r3, [r7, #116]	; 0x74
 8000920:	e9d3 0102 	ldrd	r0, r1, [r3, #8]
 8000924:	6f7b      	ldr	r3, [r7, #116]	; 0x74
 8000926:	e9d3 3400 	ldrd	r3, r4, [r3]
 800092a:	461a      	mov	r2, r3
 800092c:	4623      	mov	r3, r4
 800092e:	f00e fe83 	bl	800f638 <__aeabi_dsub>
 8000932:	4603      	mov	r3, r0
 8000934:	460c      	mov	r4, r1
 8000936:	4625      	mov	r5, r4
 8000938:	461c      	mov	r4, r3
 800093a:	6f7b      	ldr	r3, [r7, #116]	; 0x74
 800093c:	6a9b      	ldr	r3, [r3, #40]	; 0x28
 800093e:	4618      	mov	r0, r3
 8000940:	f00e ffc8 	bl	800f8d4 <__aeabi_i2d>
 8000944:	f04f 0200 	mov.w	r2, #0
 8000948:	4b85      	ldr	r3, [pc, #532]	; (8000b60 <mandelbrot+0x258>)
 800094a:	f00e fe75 	bl	800f638 <__aeabi_dsub>
 800094e:	4602      	mov	r2, r0
 8000950:	460b      	mov	r3, r1
 8000952:	4620      	mov	r0, r4
 8000954:	4629      	mov	r1, r5
 8000956:	f00f f94d 	bl	800fbf4 <__aeabi_ddiv>
 800095a:	4603      	mov	r3, r0
 800095c:	460c      	mov	r4, r1
 800095e:	e9c7 3418 	strd	r3, r4, [r7, #96]	; 0x60
 8000962:	6f7b      	ldr	r3, [r7, #116]	; 0x74
 8000964:	e9d3 3404 	ldrd	r3, r4, [r3, #16]
 8000968:	e9c7 3416 	strd	r3, r4, [r7, #88]	; 0x58
 800096c:	6f7b      	ldr	r3, [r7, #116]	; 0x74
 800096e:	e9d3 0106 	ldrd	r0, r1, [r3, #24]
 8000972:	6f7b      	ldr	r3, [r7, #116]	; 0x74
 8000974:	e9d3 3404 	ldrd	r3, r4, [r3, #16]
 8000978:	461a      	mov	r2, r3
 800097a:	4623      	mov	r3, r4
 800097c:	f00e fe5c 	bl	800f638 <__aeabi_dsub>
 8000980:	4603      	mov	r3, r0
 8000982:	460c      	mov	r4, r1
 8000984:	4625      	mov	r5, r4
 8000986:	461c      	mov	r4, r3
 8000988:	6f7b      	ldr	r3, [r7, #116]	; 0x74
 800098a:	6adb      	ldr	r3, [r3, #44]	; 0x2c
 800098c:	4618      	mov	r0, r3
 800098e:	f00e ffa1 	bl	800f8d4 <__aeabi_i2d>
 8000992:	f04f 0200 	mov.w	r2, #0
 8000996:	4b72      	ldr	r3, [pc, #456]	; (8000b60 <mandelbrot+0x258>)
 8000998:	f00e fe4e 	bl	800f638 <__aeabi_dsub>
 800099c:	4602      	mov	r2, r0
 800099e:	460b      	mov	r3, r1
 80009a0:	4620      	mov	r0, r4
 80009a2:	4629      	mov	r1, r5
 80009a4:	f00f f926 	bl	800fbf4 <__aeabi_ddiv>
 80009a8:	4603      	mov	r3, r0
 80009aa:	460c      	mov	r4, r1
 80009ac:	e9c7 3414 	strd	r3, r4, [r7, #80]	; 0x50
 80009b0:	2300      	movs	r3, #0
 80009b2:	f8c7 3084 	str.w	r3, [r7, #132]	; 0x84
 80009b6:	e0c8      	b.n	8000b4a <mandelbrot+0x242>
 80009b8:	2300      	movs	r3, #0
 80009ba:	f8c7 3080 	str.w	r3, [r7, #128]	; 0x80
 80009be:	e0b8      	b.n	8000b32 <mandelbrot+0x22a>
 80009c0:	f8d7 0084 	ldr.w	r0, [r7, #132]	; 0x84
 80009c4:	f00e ff86 	bl	800f8d4 <__aeabi_i2d>
 80009c8:	e9d7 2314 	ldrd	r2, r3, [r7, #80]	; 0x50
 80009cc:	f00e ffe8 	bl	800f9a0 <__aeabi_dmul>
 80009d0:	4603      	mov	r3, r0
 80009d2:	460c      	mov	r4, r1
 80009d4:	4618      	mov	r0, r3
 80009d6:	4621      	mov	r1, r4
 80009d8:	e9d7 2316 	ldrd	r2, r3, [r7, #88]	; 0x58
 80009dc:	f00e fe2e 	bl	800f63c <__adddf3>
 80009e0:	4603      	mov	r3, r0
 80009e2:	460c      	mov	r4, r1
 80009e4:	e9c7 3412 	strd	r3, r4, [r7, #72]	; 0x48
 80009e8:	f8d7 0080 	ldr.w	r0, [r7, #128]	; 0x80
 80009ec:	f00e ff72 	bl	800f8d4 <__aeabi_i2d>
 80009f0:	e9d7 2318 	ldrd	r2, r3, [r7, #96]	; 0x60
 80009f4:	f00e ffd4 	bl	800f9a0 <__aeabi_dmul>
 80009f8:	4603      	mov	r3, r0
 80009fa:	460c      	mov	r4, r1
 80009fc:	4618      	mov	r0, r3
 80009fe:	4621      	mov	r1, r4
 8000a00:	e9d7 231a 	ldrd	r2, r3, [r7, #104]	; 0x68
 8000a04:	f00e fe1a 	bl	800f63c <__adddf3>
 8000a08:	4603      	mov	r3, r0
 8000a0a:	460c      	mov	r4, r1
 8000a0c:	4625      	mov	r5, r4
 8000a0e:	461c      	mov	r4, r3
 8000a10:	f04f 0200 	mov.w	r2, #0
 8000a14:	f04f 0300 	mov.w	r3, #0
 8000a18:	e9d7 0112 	ldrd	r0, r1, [r7, #72]	; 0x48
 8000a1c:	f00e ffc0 	bl	800f9a0 <__aeabi_dmul>
 8000a20:	4602      	mov	r2, r0
 8000a22:	460b      	mov	r3, r1
 8000a24:	4620      	mov	r0, r4
 8000a26:	4629      	mov	r1, r5
 8000a28:	f00e fe08 	bl	800f63c <__adddf3>
 8000a2c:	4603      	mov	r3, r0
 8000a2e:	460c      	mov	r4, r1
 8000a30:	e9c7 3410 	strd	r3, r4, [r7, #64]	; 0x40
 8000a34:	e9d7 3412 	ldrd	r3, r4, [r7, #72]	; 0x48
 8000a38:	e9d7 1210 	ldrd	r1, r2, [r7, #64]	; 0x40
 8000a3c:	e9c7 120c 	strd	r1, r2, [r7, #48]	; 0x30
 8000a40:	e9c7 340e 	strd	r3, r4, [r7, #56]	; 0x38
 8000a44:	f04f 0300 	mov.w	r3, #0
 8000a48:	f04f 0400 	mov.w	r4, #0
 8000a4c:	e9c7 3408 	strd	r3, r4, [r7, #32]
 8000a50:	f04f 0300 	mov.w	r3, #0
 8000a54:	f04f 0400 	mov.w	r4, #0
 8000a58:	e9c7 340a 	strd	r3, r4, [r7, #40]	; 0x28
 8000a5c:	f04f 0300 	mov.w	r3, #0
 8000a60:	f04f 0400 	mov.w	r4, #0
 8000a64:	e9c7 341e 	strd	r3, r4, [r7, #120]	; 0x78
 8000a68:	2300      	movs	r3, #0
 8000a6a:	61fb      	str	r3, [r7, #28]
 8000a6c:	f04f 0300 	mov.w	r3, #0
 8000a70:	f04f 0400 	mov.w	r4, #0
 8000a74:	e9c7 3402 	strd	r3, r4, [r7, #8]
 8000a78:	f04f 0300 	mov.w	r3, #0
 8000a7c:	f04f 0400 	mov.w	r4, #0
 8000a80:	e9c7 3404 	strd	r3, r4, [r7, #16]
 8000a84:	e041      	b.n	8000b0a <mandelbrot+0x202>
 8000a86:	ed97 3b02 	vldr	d3, [r7, #8]
 8000a8a:	ed97 2b04 	vldr	d2, [r7, #16]
 8000a8e:	ed97 1b02 	vldr	d1, [r7, #8]
 8000a92:	ed97 0b04 	vldr	d0, [r7, #16]
 8000a96:	f00f fa1f 	bl	800fed8 <__muldc3>
 8000a9a:	eeb0 6a40 	vmov.f32	s12, s0
 8000a9e:	eef0 6a60 	vmov.f32	s13, s1
 8000aa2:	eeb0 7a41 	vmov.f32	s14, s2
 8000aa6:	eef0 7a61 	vmov.f32	s15, s3
 8000aaa:	ec54 3b16 	vmov	r3, r4, d6
 8000aae:	ec56 5b17 	vmov	r5, r6, d7
 8000ab2:	461a      	mov	r2, r3
 8000ab4:	4623      	mov	r3, r4
 8000ab6:	e9d7 0110 	ldrd	r0, r1, [r7, #64]	; 0x40
 8000aba:	f00e fdbf 	bl	800f63c <__adddf3>
 8000abe:	4603      	mov	r3, r0
 8000ac0:	460c      	mov	r4, r1
 8000ac2:	e9c7 3404 	strd	r3, r4, [r7, #16]
 8000ac6:	462a      	mov	r2, r5
 8000ac8:	4633      	mov	r3, r6
 8000aca:	e9d7 0112 	ldrd	r0, r1, [r7, #72]	; 0x48
 8000ace:	f00e fdb5 	bl	800f63c <__adddf3>
 8000ad2:	4603      	mov	r3, r0
 8000ad4:	460c      	mov	r4, r1
 8000ad6:	e9c7 3402 	strd	r3, r4, [r7, #8]
 8000ada:	e9d7 3402 	ldrd	r3, r4, [r7, #8]
 8000ade:	e9d7 1204 	ldrd	r1, r2, [r7, #16]
 8000ae2:	e9c7 1208 	strd	r1, r2, [r7, #32]
 8000ae6:	e9c7 340a 	strd	r3, r4, [r7, #40]	; 0x28
 8000aea:	ed97 6b08 	vldr	d6, [r7, #32]
 8000aee:	ed97 7b0a 	vldr	d7, [r7, #40]	; 0x28
 8000af2:	eeb0 0a46 	vmov.f32	s0, s12
 8000af6:	eef0 0a66 	vmov.f32	s1, s13
 8000afa:	eeb0 1a47 	vmov.f32	s2, s14
 8000afe:	eef0 1a67 	vmov.f32	s3, s15
 8000b02:	f00f feef 	bl	80108e4 <cabs>
 8000b06:	ed87 0b1e 	vstr	d0, [r7, #120]	; 0x78
 8000b0a:	6f7b      	ldr	r3, [r7, #116]	; 0x74
 8000b0c:	6b1a      	ldr	r2, [r3, #48]	; 0x30
 8000b0e:	69fb      	ldr	r3, [r7, #28]
 8000b10:	429a      	cmp	r2, r3
 8000b12:	dd09      	ble.n	8000b28 <mandelbrot+0x220>
 8000b14:	6f7b      	ldr	r3, [r7, #116]	; 0x74
 8000b16:	e9d3 0108 	ldrd	r0, r1, [r3, #32]
 8000b1a:	e9d7 231e 	ldrd	r2, r3, [r7, #120]	; 0x78
 8000b1e:	f00f f9cf 	bl	800fec0 <__aeabi_dcmpgt>
 8000b22:	4603      	mov	r3, r0
 8000b24:	2b00      	cmp	r3, #0
 8000b26:	d1ae      	bne.n	8000a86 <mandelbrot+0x17e>
 8000b28:	f8d7 3080 	ldr.w	r3, [r7, #128]	; 0x80
 8000b2c:	3301      	adds	r3, #1
 8000b2e:	f8c7 3080 	str.w	r3, [r7, #128]	; 0x80
 8000b32:	6f7b      	ldr	r3, [r7, #116]	; 0x74
 8000b34:	6a9a      	ldr	r2, [r3, #40]	; 0x28
 8000b36:	f8d7 3080 	ldr.w	r3, [r7, #128]	; 0x80
 8000b3a:	429a      	cmp	r2, r3
 8000b3c:	f73f af40 	bgt.w	80009c0 <mandelbrot+0xb8>
 8000b40:	f8d7 3084 	ldr.w	r3, [r7, #132]	; 0x84
 8000b44:	3301      	adds	r3, #1
 8000b46:	f8c7 3084 	str.w	r3, [r7, #132]	; 0x84
 8000b4a:	6f7b      	ldr	r3, [r7, #116]	; 0x74
 8000b4c:	6ada      	ldr	r2, [r3, #44]	; 0x2c
 8000b4e:	f8d7 3084 	ldr.w	r3, [r7, #132]	; 0x84
 8000b52:	429a      	cmp	r2, r3
 8000b54:	f73f af30 	bgt.w	80009b8 <mandelbrot+0xb0>
 8000b58:	bf00      	nop
 8000b5a:	378c      	adds	r7, #140	; 0x8c
 8000b5c:	46bd      	mov	sp, r7
 8000b5e:	bdf0      	pop	{r4, r5, r6, r7, pc}
 8000b60:	3ff00000 	svccc	0x00f00000	; IMB

08000b64 <NVIC_PriorityGroupConfig>:
 8000b64:	b480      	push	{r7}
 8000b66:	b083      	sub	sp, #12
 8000b68:	af00      	add	r7, sp, #0
 8000b6a:	6078      	str	r0, [r7, #4]
 8000b6c:	4a06      	ldr	r2, [pc, #24]	; (8000b88 <NVIC_PriorityGroupConfig+0x24>)
 8000b6e:	687b      	ldr	r3, [r7, #4]
 8000b70:	f043 63bf 	orr.w	r3, r3, #100139008	; 0x5f80000
 8000b74:	f443 3300 	orr.w	r3, r3, #131072	; 0x20000
 8000b78:	60d3      	str	r3, [r2, #12]
 8000b7a:	bf00      	nop
 8000b7c:	370c      	adds	r7, #12
 8000b7e:	46bd      	mov	sp, r7
 8000b80:	f85d 7b04 	ldr.w	r7, [sp], #4
 8000b84:	4770      	bx	lr
 8000b86:	bf00      	nop
 8000b88:	e000ed00 	and	lr, r0, r0, lsl #26

08000b8c <NVIC_Init>:
 8000b8c:	b480      	push	{r7}
 8000b8e:	b085      	sub	sp, #20
 8000b90:	af00      	add	r7, sp, #0
 8000b92:	6078      	str	r0, [r7, #4]
 8000b94:	2300      	movs	r3, #0
 8000b96:	73fb      	strb	r3, [r7, #15]
 8000b98:	2300      	movs	r3, #0
 8000b9a:	73bb      	strb	r3, [r7, #14]
 8000b9c:	230f      	movs	r3, #15
 8000b9e:	737b      	strb	r3, [r7, #13]
 8000ba0:	687b      	ldr	r3, [r7, #4]
 8000ba2:	78db      	ldrb	r3, [r3, #3]
 8000ba4:	2b00      	cmp	r3, #0
 8000ba6:	d038      	beq.n	8000c1a <NVIC_Init+0x8e>
 8000ba8:	4b27      	ldr	r3, [pc, #156]	; (8000c48 <NVIC_Init+0xbc>)
 8000baa:	68db      	ldr	r3, [r3, #12]
 8000bac:	43db      	mvns	r3, r3
 8000bae:	f403 63e0 	and.w	r3, r3, #1792	; 0x700
 8000bb2:	0a1b      	lsrs	r3, r3, #8
 8000bb4:	73fb      	strb	r3, [r7, #15]
 8000bb6:	7bfb      	ldrb	r3, [r7, #15]
 8000bb8:	f1c3 0304 	rsb	r3, r3, #4
 8000bbc:	73bb      	strb	r3, [r7, #14]
 8000bbe:	7b7a      	ldrb	r2, [r7, #13]
 8000bc0:	7bfb      	ldrb	r3, [r7, #15]
 8000bc2:	fa42 f303 	asr.w	r3, r2, r3
 8000bc6:	737b      	strb	r3, [r7, #13]
 8000bc8:	687b      	ldr	r3, [r7, #4]
 8000bca:	785b      	ldrb	r3, [r3, #1]
 8000bcc:	461a      	mov	r2, r3
 8000bce:	7bbb      	ldrb	r3, [r7, #14]
 8000bd0:	fa02 f303 	lsl.w	r3, r2, r3
 8000bd4:	73fb      	strb	r3, [r7, #15]
 8000bd6:	687b      	ldr	r3, [r7, #4]
 8000bd8:	789a      	ldrb	r2, [r3, #2]
 8000bda:	7b7b      	ldrb	r3, [r7, #13]
 8000bdc:	4013      	ands	r3, r2
 8000bde:	b2da      	uxtb	r2, r3
 8000be0:	7bfb      	ldrb	r3, [r7, #15]
 8000be2:	4313      	orrs	r3, r2
 8000be4:	73fb      	strb	r3, [r7, #15]
 8000be6:	7bfb      	ldrb	r3, [r7, #15]
 8000be8:	011b      	lsls	r3, r3, #4
 8000bea:	73fb      	strb	r3, [r7, #15]
 8000bec:	4a17      	ldr	r2, [pc, #92]	; (8000c4c <NVIC_Init+0xc0>)
 8000bee:	687b      	ldr	r3, [r7, #4]
 8000bf0:	781b      	ldrb	r3, [r3, #0]
 8000bf2:	4413      	add	r3, r2
 8000bf4:	7bfa      	ldrb	r2, [r7, #15]
 8000bf6:	f883 2300 	strb.w	r2, [r3, #768]	; 0x300
 8000bfa:	4a14      	ldr	r2, [pc, #80]	; (8000c4c <NVIC_Init+0xc0>)
 8000bfc:	687b      	ldr	r3, [r7, #4]
 8000bfe:	781b      	ldrb	r3, [r3, #0]
 8000c00:	095b      	lsrs	r3, r3, #5
 8000c02:	b2db      	uxtb	r3, r3
 8000c04:	4618      	mov	r0, r3
 8000c06:	687b      	ldr	r3, [r7, #4]
 8000c08:	781b      	ldrb	r3, [r3, #0]
 8000c0a:	f003 031f 	and.w	r3, r3, #31
 8000c0e:	2101      	movs	r1, #1
 8000c10:	fa01 f303 	lsl.w	r3, r1, r3
 8000c14:	f842 3020 	str.w	r3, [r2, r0, lsl #2]
 8000c18:	e00f      	b.n	8000c3a <NVIC_Init+0xae>
 8000c1a:	490c      	ldr	r1, [pc, #48]	; (8000c4c <NVIC_Init+0xc0>)
 8000c1c:	687b      	ldr	r3, [r7, #4]
 8000c1e:	781b      	ldrb	r3, [r3, #0]
 8000c20:	095b      	lsrs	r3, r3, #5
 8000c22:	b2db      	uxtb	r3, r3
 8000c24:	4618      	mov	r0, r3
 8000c26:	687b      	ldr	r3, [r7, #4]
 8000c28:	781b      	ldrb	r3, [r3, #0]
 8000c2a:	f003 031f 	and.w	r3, r3, #31
 8000c2e:	2201      	movs	r2, #1
 8000c30:	409a      	lsls	r2, r3
 8000c32:	f100 0320 	add.w	r3, r0, #32
 8000c36:	f841 2023 	str.w	r2, [r1, r3, lsl #2]
 8000c3a:	bf00      	nop
 8000c3c:	3714      	adds	r7, #20
 8000c3e:	46bd      	mov	sp, r7
 8000c40:	f85d 7b04 	ldr.w	r7, [sp], #4
 8000c44:	4770      	bx	lr
 8000c46:	bf00      	nop
 8000c48:	e000ed00 	and	lr, r0, r0, lsl #26
 8000c4c:	e000e100 	and	lr, r0, r0, lsl #2

08000c50 <NVIC_SetVectorTable>:
 8000c50:	b480      	push	{r7}
 8000c52:	b083      	sub	sp, #12
 8000c54:	af00      	add	r7, sp, #0
 8000c56:	6078      	str	r0, [r7, #4]
 8000c58:	6039      	str	r1, [r7, #0]
 8000c5a:	4907      	ldr	r1, [pc, #28]	; (8000c78 <NVIC_SetVectorTable+0x28>)
 8000c5c:	683b      	ldr	r3, [r7, #0]
 8000c5e:	f023 4360 	bic.w	r3, r3, #3758096384	; 0xe0000000
 8000c62:	f023 037f 	bic.w	r3, r3, #127	; 0x7f
 8000c66:	687a      	ldr	r2, [r7, #4]
 8000c68:	4313      	orrs	r3, r2
 8000c6a:	608b      	str	r3, [r1, #8]
 8000c6c:	bf00      	nop
 8000c6e:	370c      	adds	r7, #12
 8000c70:	46bd      	mov	sp, r7
 8000c72:	f85d 7b04 	ldr.w	r7, [sp], #4
 8000c76:	4770      	bx	lr
 8000c78:	e000ed00 	and	lr, r0, r0, lsl #26

08000c7c <NVIC_SystemLPConfig>:
 8000c7c:	b480      	push	{r7}
 8000c7e:	b083      	sub	sp, #12
 8000c80:	af00      	add	r7, sp, #0
 8000c82:	4603      	mov	r3, r0
 8000c84:	460a      	mov	r2, r1
 8000c86:	71fb      	strb	r3, [r7, #7]
 8000c88:	4613      	mov	r3, r2
 8000c8a:	71bb      	strb	r3, [r7, #6]
 8000c8c:	79bb      	ldrb	r3, [r7, #6]
 8000c8e:	2b00      	cmp	r3, #0
 8000c90:	d006      	beq.n	8000ca0 <NVIC_SystemLPConfig+0x24>
 8000c92:	490a      	ldr	r1, [pc, #40]	; (8000cbc <NVIC_SystemLPConfig+0x40>)
 8000c94:	4b09      	ldr	r3, [pc, #36]	; (8000cbc <NVIC_SystemLPConfig+0x40>)
 8000c96:	691a      	ldr	r2, [r3, #16]
 8000c98:	79fb      	ldrb	r3, [r7, #7]
 8000c9a:	4313      	orrs	r3, r2
 8000c9c:	610b      	str	r3, [r1, #16]
 8000c9e:	e006      	b.n	8000cae <NVIC_SystemLPConfig+0x32>
 8000ca0:	4906      	ldr	r1, [pc, #24]	; (8000cbc <NVIC_SystemLPConfig+0x40>)
 8000ca2:	4b06      	ldr	r3, [pc, #24]	; (8000cbc <NVIC_SystemLPConfig+0x40>)
 8000ca4:	691a      	ldr	r2, [r3, #16]
 8000ca6:	79fb      	ldrb	r3, [r7, #7]
 8000ca8:	43db      	mvns	r3, r3
 8000caa:	4013      	ands	r3, r2
 8000cac:	610b      	str	r3, [r1, #16]
 8000cae:	bf00      	nop
 8000cb0:	370c      	adds	r7, #12
 8000cb2:	46bd      	mov	sp, r7
 8000cb4:	f85d 7b04 	ldr.w	r7, [sp], #4
 8000cb8:	4770      	bx	lr
 8000cba:	bf00      	nop
 8000cbc:	e000ed00 	and	lr, r0, r0, lsl #26

08000cc0 <SysTick_CLKSourceConfig>:
 8000cc0:	b480      	push	{r7}
 8000cc2:	b083      	sub	sp, #12
 8000cc4:	af00      	add	r7, sp, #0
 8000cc6:	6078      	str	r0, [r7, #4]
 8000cc8:	687b      	ldr	r3, [r7, #4]
 8000cca:	2b04      	cmp	r3, #4
 8000ccc:	d106      	bne.n	8000cdc <SysTick_CLKSourceConfig+0x1c>
 8000cce:	4a09      	ldr	r2, [pc, #36]	; (8000cf4 <SysTick_CLKSourceConfig+0x34>)
 8000cd0:	4b08      	ldr	r3, [pc, #32]	; (8000cf4 <SysTick_CLKSourceConfig+0x34>)
 8000cd2:	681b      	ldr	r3, [r3, #0]
 8000cd4:	f043 0304 	orr.w	r3, r3, #4
 8000cd8:	6013      	str	r3, [r2, #0]
 8000cda:	e005      	b.n	8000ce8 <SysTick_CLKSourceConfig+0x28>
 8000cdc:	4a05      	ldr	r2, [pc, #20]	; (8000cf4 <SysTick_CLKSourceConfig+0x34>)
 8000cde:	4b05      	ldr	r3, [pc, #20]	; (8000cf4 <SysTick_CLKSourceConfig+0x34>)
 8000ce0:	681b      	ldr	r3, [r3, #0]
 8000ce2:	f023 0304 	bic.w	r3, r3, #4
 8000ce6:	6013      	str	r3, [r2, #0]
 8000ce8:	bf00      	nop
 8000cea:	370c      	adds	r7, #12
 8000cec:	46bd      	mov	sp, r7
 8000cee:	f85d 7b04 	ldr.w	r7, [sp], #4
 8000cf2:	4770      	bx	lr
 8000cf4:	e000e010 	and	lr, r0, r0, lsl r0

08000cf8 <ADC_DeInit>:
 8000cf8:	b580      	push	{r7, lr}
 8000cfa:	af00      	add	r7, sp, #0
 8000cfc:	2101      	movs	r1, #1
 8000cfe:	f44f 7080 	mov.w	r0, #256	; 0x100
 8000d02:	f009 fcff 	bl	800a704 <RCC_APB2PeriphResetCmd>
 8000d06:	2100      	movs	r1, #0
 8000d08:	f44f 7080 	mov.w	r0, #256	; 0x100
 8000d0c:	f009 fcfa 	bl	800a704 <RCC_APB2PeriphResetCmd>
 8000d10:	bf00      	nop
 8000d12:	bd80      	pop	{r7, pc}

08000d14 <ADC_Init>:
 8000d14:	b480      	push	{r7}
 8000d16:	b085      	sub	sp, #20
 8000d18:	af00      	add	r7, sp, #0
 8000d1a:	6078      	str	r0, [r7, #4]
 8000d1c:	6039      	str	r1, [r7, #0]
 8000d1e:	2300      	movs	r3, #0
 8000d20:	60fb      	str	r3, [r7, #12]
 8000d22:	2300      	movs	r3, #0
 8000d24:	72fb      	strb	r3, [r7, #11]
 8000d26:	687b      	ldr	r3, [r7, #4]
 8000d28:	685b      	ldr	r3, [r3, #4]
 8000d2a:	60fb      	str	r3, [r7, #12]
 8000d2c:	68fb      	ldr	r3, [r7, #12]
 8000d2e:	f023 7340 	bic.w	r3, r3, #50331648	; 0x3000000
 8000d32:	f423 7380 	bic.w	r3, r3, #256	; 0x100
 8000d36:	60fb      	str	r3, [r7, #12]
 8000d38:	683b      	ldr	r3, [r7, #0]
 8000d3a:	791b      	ldrb	r3, [r3, #4]
 8000d3c:	021a      	lsls	r2, r3, #8
 8000d3e:	683b      	ldr	r3, [r7, #0]
 8000d40:	681b      	ldr	r3, [r3, #0]
 8000d42:	4313      	orrs	r3, r2
 8000d44:	68fa      	ldr	r2, [r7, #12]
 8000d46:	4313      	orrs	r3, r2
 8000d48:	60fb      	str	r3, [r7, #12]
 8000d4a:	687b      	ldr	r3, [r7, #4]
 8000d4c:	68fa      	ldr	r2, [r7, #12]
 8000d4e:	605a      	str	r2, [r3, #4]
 8000d50:	687b      	ldr	r3, [r7, #4]
 8000d52:	689b      	ldr	r3, [r3, #8]
 8000d54:	60fb      	str	r3, [r7, #12]
 8000d56:	68fa      	ldr	r2, [r7, #12]
 8000d58:	4b18      	ldr	r3, [pc, #96]	; (8000dbc <ADC_Init+0xa8>)
 8000d5a:	4013      	ands	r3, r2
 8000d5c:	60fb      	str	r3, [r7, #12]
 8000d5e:	683b      	ldr	r3, [r7, #0]
 8000d60:	691a      	ldr	r2, [r3, #16]
 8000d62:	683b      	ldr	r3, [r7, #0]
 8000d64:	68db      	ldr	r3, [r3, #12]
 8000d66:	431a      	orrs	r2, r3
 8000d68:	683b      	ldr	r3, [r7, #0]
 8000d6a:	689b      	ldr	r3, [r3, #8]
 8000d6c:	431a      	orrs	r2, r3
 8000d6e:	683b      	ldr	r3, [r7, #0]
 8000d70:	795b      	ldrb	r3, [r3, #5]
 8000d72:	005b      	lsls	r3, r3, #1
 8000d74:	4313      	orrs	r3, r2
 8000d76:	68fa      	ldr	r2, [r7, #12]
 8000d78:	4313      	orrs	r3, r2
 8000d7a:	60fb      	str	r3, [r7, #12]
 8000d7c:	687b      	ldr	r3, [r7, #4]
 8000d7e:	68fa      	ldr	r2, [r7, #12]
 8000d80:	609a      	str	r2, [r3, #8]
 8000d82:	687b      	ldr	r3, [r7, #4]
 8000d84:	6adb      	ldr	r3, [r3, #44]	; 0x2c
 8000d86:	60fb      	str	r3, [r7, #12]
 8000d88:	68fb      	ldr	r3, [r7, #12]
 8000d8a:	f423 0370 	bic.w	r3, r3, #15728640	; 0xf00000
 8000d8e:	60fb      	str	r3, [r7, #12]
 8000d90:	683b      	ldr	r3, [r7, #0]
 8000d92:	7d1b      	ldrb	r3, [r3, #20]
 8000d94:	3b01      	subs	r3, #1
 8000d96:	b2da      	uxtb	r2, r3
 8000d98:	7afb      	ldrb	r3, [r7, #11]
 8000d9a:	4313      	orrs	r3, r2
 8000d9c:	72fb      	strb	r3, [r7, #11]
 8000d9e:	7afb      	ldrb	r3, [r7, #11]
 8000da0:	051b      	lsls	r3, r3, #20
 8000da2:	68fa      	ldr	r2, [r7, #12]
 8000da4:	4313      	orrs	r3, r2
 8000da6:	60fb      	str	r3, [r7, #12]
 8000da8:	687b      	ldr	r3, [r7, #4]
 8000daa:	68fa      	ldr	r2, [r7, #12]
 8000dac:	62da      	str	r2, [r3, #44]	; 0x2c
 8000dae:	bf00      	nop
 8000db0:	3714      	adds	r7, #20
 8000db2:	46bd      	mov	sp, r7
 8000db4:	f85d 7b04 	ldr.w	r7, [sp], #4
 8000db8:	4770      	bx	lr
 8000dba:	bf00      	nop
 8000dbc:	c0fff7fd 	ldrshtgt	pc, [pc], #125	; <UNPREDICTABLE>

08000dc0 <ADC_StructInit>:
 8000dc0:	b480      	push	{r7}
 8000dc2:	b083      	sub	sp, #12
 8000dc4:	af00      	add	r7, sp, #0
 8000dc6:	6078      	str	r0, [r7, #4]
 8000dc8:	687b      	ldr	r3, [r7, #4]
 8000dca:	2200      	movs	r2, #0
 8000dcc:	601a      	str	r2, [r3, #0]
 8000dce:	687b      	ldr	r3, [r7, #4]
 8000dd0:	2200      	movs	r2, #0
 8000dd2:	711a      	strb	r2, [r3, #4]
 8000dd4:	687b      	ldr	r3, [r7, #4]
 8000dd6:	2200      	movs	r2, #0
 8000dd8:	715a      	strb	r2, [r3, #5]
 8000dda:	687b      	ldr	r3, [r7, #4]
 8000ddc:	2200      	movs	r2, #0
 8000dde:	609a      	str	r2, [r3, #8]
 8000de0:	687b      	ldr	r3, [r7, #4]
 8000de2:	2200      	movs	r2, #0
 8000de4:	60da      	str	r2, [r3, #12]
 8000de6:	687b      	ldr	r3, [r7, #4]
 8000de8:	2200      	movs	r2, #0
 8000dea:	611a      	str	r2, [r3, #16]
 8000dec:	687b      	ldr	r3, [r7, #4]
 8000dee:	2201      	movs	r2, #1
 8000df0:	751a      	strb	r2, [r3, #20]
 8000df2:	bf00      	nop
 8000df4:	370c      	adds	r7, #12
 8000df6:	46bd      	mov	sp, r7
 8000df8:	f85d 7b04 	ldr.w	r7, [sp], #4
 8000dfc:	4770      	bx	lr
 8000dfe:	bf00      	nop

08000e00 <ADC_CommonInit>:
 8000e00:	b480      	push	{r7}
 8000e02:	b085      	sub	sp, #20
 8000e04:	af00      	add	r7, sp, #0
 8000e06:	6078      	str	r0, [r7, #4]
 8000e08:	2300      	movs	r3, #0
 8000e0a:	60fb      	str	r3, [r7, #12]
 8000e0c:	4b0e      	ldr	r3, [pc, #56]	; (8000e48 <ADC_CommonInit+0x48>)
 8000e0e:	685b      	ldr	r3, [r3, #4]
 8000e10:	60fb      	str	r3, [r7, #12]
 8000e12:	68fa      	ldr	r2, [r7, #12]
 8000e14:	4b0d      	ldr	r3, [pc, #52]	; (8000e4c <ADC_CommonInit+0x4c>)
 8000e16:	4013      	ands	r3, r2
 8000e18:	60fb      	str	r3, [r7, #12]
 8000e1a:	687b      	ldr	r3, [r7, #4]
 8000e1c:	681a      	ldr	r2, [r3, #0]
 8000e1e:	687b      	ldr	r3, [r7, #4]
 8000e20:	685b      	ldr	r3, [r3, #4]
 8000e22:	431a      	orrs	r2, r3
 8000e24:	687b      	ldr	r3, [r7, #4]
 8000e26:	689b      	ldr	r3, [r3, #8]
 8000e28:	431a      	orrs	r2, r3
 8000e2a:	687b      	ldr	r3, [r7, #4]
 8000e2c:	68db      	ldr	r3, [r3, #12]
 8000e2e:	4313      	orrs	r3, r2
 8000e30:	68fa      	ldr	r2, [r7, #12]
 8000e32:	4313      	orrs	r3, r2
 8000e34:	60fb      	str	r3, [r7, #12]
 8000e36:	4a04      	ldr	r2, [pc, #16]	; (8000e48 <ADC_CommonInit+0x48>)
 8000e38:	68fb      	ldr	r3, [r7, #12]
 8000e3a:	6053      	str	r3, [r2, #4]
 8000e3c:	bf00      	nop
 8000e3e:	3714      	adds	r7, #20
 8000e40:	46bd      	mov	sp, r7
 8000e42:	f85d 7b04 	ldr.w	r7, [sp], #4
 8000e46:	4770      	bx	lr
 8000e48:	40012300 	andmi	r2, r1, r0, lsl #6
 8000e4c:	fffc30e0 			; <UNDEFINED> instruction: 0xfffc30e0

08000e50 <ADC_CommonStructInit>:
 8000e50:	b480      	push	{r7}
 8000e52:	b083      	sub	sp, #12
 8000e54:	af00      	add	r7, sp, #0
 8000e56:	6078      	str	r0, [r7, #4]
 8000e58:	687b      	ldr	r3, [r7, #4]
 8000e5a:	2200      	movs	r2, #0
 8000e5c:	601a      	str	r2, [r3, #0]
 8000e5e:	687b      	ldr	r3, [r7, #4]
 8000e60:	2200      	movs	r2, #0
 8000e62:	605a      	str	r2, [r3, #4]
 8000e64:	687b      	ldr	r3, [r7, #4]
 8000e66:	2200      	movs	r2, #0
 8000e68:	609a      	str	r2, [r3, #8]
 8000e6a:	687b      	ldr	r3, [r7, #4]
 8000e6c:	2200      	movs	r2, #0
 8000e6e:	60da      	str	r2, [r3, #12]
 8000e70:	bf00      	nop
 8000e72:	370c      	adds	r7, #12
 8000e74:	46bd      	mov	sp, r7
 8000e76:	f85d 7b04 	ldr.w	r7, [sp], #4
 8000e7a:	4770      	bx	lr

08000e7c <ADC_Cmd>:
 8000e7c:	b480      	push	{r7}
 8000e7e:	b083      	sub	sp, #12
 8000e80:	af00      	add	r7, sp, #0
 8000e82:	6078      	str	r0, [r7, #4]
 8000e84:	460b      	mov	r3, r1
 8000e86:	70fb      	strb	r3, [r7, #3]
 8000e88:	78fb      	ldrb	r3, [r7, #3]
 8000e8a:	2b00      	cmp	r3, #0
 8000e8c:	d006      	beq.n	8000e9c <ADC_Cmd+0x20>
 8000e8e:	687b      	ldr	r3, [r7, #4]
 8000e90:	689b      	ldr	r3, [r3, #8]
 8000e92:	f043 0201 	orr.w	r2, r3, #1
 8000e96:	687b      	ldr	r3, [r7, #4]
 8000e98:	609a      	str	r2, [r3, #8]
 8000e9a:	e005      	b.n	8000ea8 <ADC_Cmd+0x2c>
 8000e9c:	687b      	ldr	r3, [r7, #4]
 8000e9e:	689b      	ldr	r3, [r3, #8]
 8000ea0:	f023 0201 	bic.w	r2, r3, #1
 8000ea4:	687b      	ldr	r3, [r7, #4]
 8000ea6:	609a      	str	r2, [r3, #8]
 8000ea8:	bf00      	nop
 8000eaa:	370c      	adds	r7, #12
 8000eac:	46bd      	mov	sp, r7
 8000eae:	f85d 7b04 	ldr.w	r7, [sp], #4
 8000eb2:	4770      	bx	lr

08000eb4 <ADC_AnalogWatchdogCmd>:
 8000eb4:	b480      	push	{r7}
 8000eb6:	b085      	sub	sp, #20
 8000eb8:	af00      	add	r7, sp, #0
 8000eba:	6078      	str	r0, [r7, #4]
 8000ebc:	6039      	str	r1, [r7, #0]
 8000ebe:	2300      	movs	r3, #0
 8000ec0:	60fb      	str	r3, [r7, #12]
 8000ec2:	687b      	ldr	r3, [r7, #4]
 8000ec4:	685b      	ldr	r3, [r3, #4]
 8000ec6:	60fb      	str	r3, [r7, #12]
 8000ec8:	68fb      	ldr	r3, [r7, #12]
 8000eca:	f423 0340 	bic.w	r3, r3, #12582912	; 0xc00000
 8000ece:	f423 7300 	bic.w	r3, r3, #512	; 0x200
 8000ed2:	60fb      	str	r3, [r7, #12]
 8000ed4:	68fa      	ldr	r2, [r7, #12]
 8000ed6:	683b      	ldr	r3, [r7, #0]
 8000ed8:	4313      	orrs	r3, r2
 8000eda:	60fb      	str	r3, [r7, #12]
 8000edc:	687b      	ldr	r3, [r7, #4]
 8000ede:	68fa      	ldr	r2, [r7, #12]
 8000ee0:	605a      	str	r2, [r3, #4]
 8000ee2:	bf00      	nop
 8000ee4:	3714      	adds	r7, #20
 8000ee6:	46bd      	mov	sp, r7
 8000ee8:	f85d 7b04 	ldr.w	r7, [sp], #4
 8000eec:	4770      	bx	lr
 8000eee:	bf00      	nop

08000ef0 <ADC_AnalogWatchdogThresholdsConfig>:
 8000ef0:	b480      	push	{r7}
 8000ef2:	b083      	sub	sp, #12
 8000ef4:	af00      	add	r7, sp, #0
 8000ef6:	6078      	str	r0, [r7, #4]
 8000ef8:	460b      	mov	r3, r1
 8000efa:	807b      	strh	r3, [r7, #2]
 8000efc:	4613      	mov	r3, r2
 8000efe:	803b      	strh	r3, [r7, #0]
 8000f00:	887a      	ldrh	r2, [r7, #2]
 8000f02:	687b      	ldr	r3, [r7, #4]
 8000f04:	625a      	str	r2, [r3, #36]	; 0x24
 8000f06:	883a      	ldrh	r2, [r7, #0]
 8000f08:	687b      	ldr	r3, [r7, #4]
 8000f0a:	629a      	str	r2, [r3, #40]	; 0x28
 8000f0c:	bf00      	nop
 8000f0e:	370c      	adds	r7, #12
 8000f10:	46bd      	mov	sp, r7
 8000f12:	f85d 7b04 	ldr.w	r7, [sp], #4
 8000f16:	4770      	bx	lr

08000f18 <ADC_AnalogWatchdogSingleChannelConfig>:
 8000f18:	b480      	push	{r7}
 8000f1a:	b085      	sub	sp, #20
 8000f1c:	af00      	add	r7, sp, #0
 8000f1e:	6078      	str	r0, [r7, #4]
 8000f20:	460b      	mov	r3, r1
 8000f22:	70fb      	strb	r3, [r7, #3]
 8000f24:	2300      	movs	r3, #0
 8000f26:	60fb      	str	r3, [r7, #12]
 8000f28:	687b      	ldr	r3, [r7, #4]
 8000f2a:	685b      	ldr	r3, [r3, #4]
 8000f2c:	60fb      	str	r3, [r7, #12]
 8000f2e:	68fb      	ldr	r3, [r7, #12]
 8000f30:	f023 031f 	bic.w	r3, r3, #31
 8000f34:	60fb      	str	r3, [r7, #12]
 8000f36:	78fb      	ldrb	r3, [r7, #3]
 8000f38:	68fa      	ldr	r2, [r7, #12]
 8000f3a:	4313      	orrs	r3, r2
 8000f3c:	60fb      	str	r3, [r7, #12]
 8000f3e:	687b      	ldr	r3, [r7, #4]
 8000f40:	68fa      	ldr	r2, [r7, #12]
 8000f42:	605a      	str	r2, [r3, #4]
 8000f44:	bf00      	nop
 8000f46:	3714      	adds	r7, #20
 8000f48:	46bd      	mov	sp, r7
 8000f4a:	f85d 7b04 	ldr.w	r7, [sp], #4
 8000f4e:	4770      	bx	lr

08000f50 <ADC_TempSensorVrefintCmd>:
 8000f50:	b480      	push	{r7}
 8000f52:	b083      	sub	sp, #12
 8000f54:	af00      	add	r7, sp, #0
 8000f56:	4603      	mov	r3, r0
 8000f58:	71fb      	strb	r3, [r7, #7]
 8000f5a:	79fb      	ldrb	r3, [r7, #7]
 8000f5c:	2b00      	cmp	r3, #0
 8000f5e:	d006      	beq.n	8000f6e <ADC_TempSensorVrefintCmd+0x1e>
 8000f60:	4a09      	ldr	r2, [pc, #36]	; (8000f88 <ADC_TempSensorVrefintCmd+0x38>)
 8000f62:	4b09      	ldr	r3, [pc, #36]	; (8000f88 <ADC_TempSensorVrefintCmd+0x38>)
 8000f64:	685b      	ldr	r3, [r3, #4]
 8000f66:	f443 0300 	orr.w	r3, r3, #8388608	; 0x800000
 8000f6a:	6053      	str	r3, [r2, #4]
 8000f6c:	e005      	b.n	8000f7a <ADC_TempSensorVrefintCmd+0x2a>
 8000f6e:	4a06      	ldr	r2, [pc, #24]	; (8000f88 <ADC_TempSensorVrefintCmd+0x38>)
 8000f70:	4b05      	ldr	r3, [pc, #20]	; (8000f88 <ADC_TempSensorVrefintCmd+0x38>)
 8000f72:	685b      	ldr	r3, [r3, #4]
 8000f74:	f423 0300 	bic.w	r3, r3, #8388608	; 0x800000
 8000f78:	6053      	str	r3, [r2, #4]
 8000f7a:	bf00      	nop
 8000f7c:	370c      	adds	r7, #12
 8000f7e:	46bd      	mov	sp, r7
 8000f80:	f85d 7b04 	ldr.w	r7, [sp], #4
 8000f84:	4770      	bx	lr
 8000f86:	bf00      	nop
 8000f88:	40012300 	andmi	r2, r1, r0, lsl #6

08000f8c <ADC_VBATCmd>:
 8000f8c:	b480      	push	{r7}
 8000f8e:	b083      	sub	sp, #12
 8000f90:	af00      	add	r7, sp, #0
 8000f92:	4603      	mov	r3, r0
 8000f94:	71fb      	strb	r3, [r7, #7]
 8000f96:	79fb      	ldrb	r3, [r7, #7]
 8000f98:	2b00      	cmp	r3, #0
 8000f9a:	d006      	beq.n	8000faa <ADC_VBATCmd+0x1e>
 8000f9c:	4a09      	ldr	r2, [pc, #36]	; (8000fc4 <ADC_VBATCmd+0x38>)
 8000f9e:	4b09      	ldr	r3, [pc, #36]	; (8000fc4 <ADC_VBATCmd+0x38>)
 8000fa0:	685b      	ldr	r3, [r3, #4]
 8000fa2:	f443 0380 	orr.w	r3, r3, #4194304	; 0x400000
 8000fa6:	6053      	str	r3, [r2, #4]
 8000fa8:	e005      	b.n	8000fb6 <ADC_VBATCmd+0x2a>
 8000faa:	4a06      	ldr	r2, [pc, #24]	; (8000fc4 <ADC_VBATCmd+0x38>)
 8000fac:	4b05      	ldr	r3, [pc, #20]	; (8000fc4 <ADC_VBATCmd+0x38>)
 8000fae:	685b      	ldr	r3, [r3, #4]
 8000fb0:	f423 0380 	bic.w	r3, r3, #4194304	; 0x400000
 8000fb4:	6053      	str	r3, [r2, #4]
 8000fb6:	bf00      	nop
 8000fb8:	370c      	adds	r7, #12
 8000fba:	46bd      	mov	sp, r7
 8000fbc:	f85d 7b04 	ldr.w	r7, [sp], #4
 8000fc0:	4770      	bx	lr
 8000fc2:	bf00      	nop
 8000fc4:	40012300 	andmi	r2, r1, r0, lsl #6

08000fc8 <ADC_RegularChannelConfig>:
 8000fc8:	b480      	push	{r7}
 8000fca:	b085      	sub	sp, #20
 8000fcc:	af00      	add	r7, sp, #0
 8000fce:	6078      	str	r0, [r7, #4]
 8000fd0:	4608      	mov	r0, r1
 8000fd2:	4611      	mov	r1, r2
 8000fd4:	461a      	mov	r2, r3
 8000fd6:	4603      	mov	r3, r0
 8000fd8:	70fb      	strb	r3, [r7, #3]
 8000fda:	460b      	mov	r3, r1
 8000fdc:	70bb      	strb	r3, [r7, #2]
 8000fde:	4613      	mov	r3, r2
 8000fe0:	707b      	strb	r3, [r7, #1]
 8000fe2:	2300      	movs	r3, #0
 8000fe4:	60fb      	str	r3, [r7, #12]
 8000fe6:	2300      	movs	r3, #0
 8000fe8:	60bb      	str	r3, [r7, #8]
 8000fea:	78fb      	ldrb	r3, [r7, #3]
 8000fec:	2b09      	cmp	r3, #9
 8000fee:	d923      	bls.n	8001038 <ADC_RegularChannelConfig+0x70>
 8000ff0:	687b      	ldr	r3, [r7, #4]
 8000ff2:	68db      	ldr	r3, [r3, #12]
 8000ff4:	60fb      	str	r3, [r7, #12]
 8000ff6:	78fb      	ldrb	r3, [r7, #3]
 8000ff8:	f1a3 020a 	sub.w	r2, r3, #10
 8000ffc:	4613      	mov	r3, r2
 8000ffe:	005b      	lsls	r3, r3, #1
 8001000:	4413      	add	r3, r2
 8001002:	2207      	movs	r2, #7
 8001004:	fa02 f303 	lsl.w	r3, r2, r3
 8001008:	60bb      	str	r3, [r7, #8]
 800100a:	68bb      	ldr	r3, [r7, #8]
 800100c:	43db      	mvns	r3, r3
 800100e:	68fa      	ldr	r2, [r7, #12]
 8001010:	4013      	ands	r3, r2
 8001012:	60fb      	str	r3, [r7, #12]
 8001014:	7879      	ldrb	r1, [r7, #1]
 8001016:	78fb      	ldrb	r3, [r7, #3]
 8001018:	f1a3 020a 	sub.w	r2, r3, #10
 800101c:	4613      	mov	r3, r2
 800101e:	005b      	lsls	r3, r3, #1
 8001020:	4413      	add	r3, r2
 8001022:	fa01 f303 	lsl.w	r3, r1, r3
 8001026:	60bb      	str	r3, [r7, #8]
 8001028:	68fa      	ldr	r2, [r7, #12]
 800102a:	68bb      	ldr	r3, [r7, #8]
 800102c:	4313      	orrs	r3, r2
 800102e:	60fb      	str	r3, [r7, #12]
 8001030:	687b      	ldr	r3, [r7, #4]
 8001032:	68fa      	ldr	r2, [r7, #12]
 8001034:	60da      	str	r2, [r3, #12]
 8001036:	e01e      	b.n	8001076 <ADC_RegularChannelConfig+0xae>
 8001038:	687b      	ldr	r3, [r7, #4]
 800103a:	691b      	ldr	r3, [r3, #16]
 800103c:	60fb      	str	r3, [r7, #12]
 800103e:	78fa      	ldrb	r2, [r7, #3]
 8001040:	4613      	mov	r3, r2
 8001042:	005b      	lsls	r3, r3, #1
 8001044:	4413      	add	r3, r2
 8001046:	2207      	movs	r2, #7
 8001048:	fa02 f303 	lsl.w	r3, r2, r3
 800104c:	60bb      	str	r3, [r7, #8]
 800104e:	68bb      	ldr	r3, [r7, #8]
 8001050:	43db      	mvns	r3, r3
 8001052:	68fa      	ldr	r2, [r7, #12]
 8001054:	4013      	ands	r3, r2
 8001056:	60fb      	str	r3, [r7, #12]
 8001058:	7879      	ldrb	r1, [r7, #1]
 800105a:	78fa      	ldrb	r2, [r7, #3]
 800105c:	4613      	mov	r3, r2
 800105e:	005b      	lsls	r3, r3, #1
 8001060:	4413      	add	r3, r2
 8001062:	fa01 f303 	lsl.w	r3, r1, r3
 8001066:	60bb      	str	r3, [r7, #8]
 8001068:	68fa      	ldr	r2, [r7, #12]
 800106a:	68bb      	ldr	r3, [r7, #8]
 800106c:	4313      	orrs	r3, r2
 800106e:	60fb      	str	r3, [r7, #12]
 8001070:	687b      	ldr	r3, [r7, #4]
 8001072:	68fa      	ldr	r2, [r7, #12]
 8001074:	611a      	str	r2, [r3, #16]
 8001076:	78bb      	ldrb	r3, [r7, #2]
 8001078:	2b06      	cmp	r3, #6
 800107a:	d821      	bhi.n	80010c0 <ADC_RegularChannelConfig+0xf8>
 800107c:	687b      	ldr	r3, [r7, #4]
 800107e:	6b5b      	ldr	r3, [r3, #52]	; 0x34
 8001080:	60fb      	str	r3, [r7, #12]
 8001082:	78bb      	ldrb	r3, [r7, #2]
 8001084:	1e5a      	subs	r2, r3, #1
 8001086:	4613      	mov	r3, r2
 8001088:	009b      	lsls	r3, r3, #2
 800108a:	4413      	add	r3, r2
 800108c:	221f      	movs	r2, #31
 800108e:	fa02 f303 	lsl.w	r3, r2, r3
 8001092:	60bb      	str	r3, [r7, #8]
 8001094:	68bb      	ldr	r3, [r7, #8]
 8001096:	43db      	mvns	r3, r3
 8001098:	68fa      	ldr	r2, [r7, #12]
 800109a:	4013      	ands	r3, r2
 800109c:	60fb      	str	r3, [r7, #12]
 800109e:	78f9      	ldrb	r1, [r7, #3]
 80010a0:	78bb      	ldrb	r3, [r7, #2]
 80010a2:	1e5a      	subs	r2, r3, #1
 80010a4:	4613      	mov	r3, r2
 80010a6:	009b      	lsls	r3, r3, #2
 80010a8:	4413      	add	r3, r2
 80010aa:	fa01 f303 	lsl.w	r3, r1, r3
 80010ae:	60bb      	str	r3, [r7, #8]
 80010b0:	68fa      	ldr	r2, [r7, #12]
 80010b2:	68bb      	ldr	r3, [r7, #8]
 80010b4:	4313      	orrs	r3, r2
 80010b6:	60fb      	str	r3, [r7, #12]
 80010b8:	687b      	ldr	r3, [r7, #4]
 80010ba:	68fa      	ldr	r2, [r7, #12]
 80010bc:	635a      	str	r2, [r3, #52]	; 0x34
 80010be:	e047      	b.n	8001150 <ADC_RegularChannelConfig+0x188>
 80010c0:	78bb      	ldrb	r3, [r7, #2]
 80010c2:	2b0c      	cmp	r3, #12
 80010c4:	d821      	bhi.n	800110a <ADC_RegularChannelConfig+0x142>
 80010c6:	687b      	ldr	r3, [r7, #4]
 80010c8:	6b1b      	ldr	r3, [r3, #48]	; 0x30
 80010ca:	60fb      	str	r3, [r7, #12]
 80010cc:	78bb      	ldrb	r3, [r7, #2]
 80010ce:	1fda      	subs	r2, r3, #7
 80010d0:	4613      	mov	r3, r2
 80010d2:	009b      	lsls	r3, r3, #2
 80010d4:	4413      	add	r3, r2
 80010d6:	221f      	movs	r2, #31
 80010d8:	fa02 f303 	lsl.w	r3, r2, r3
 80010dc:	60bb      	str	r3, [r7, #8]
 80010de:	68bb      	ldr	r3, [r7, #8]
 80010e0:	43db      	mvns	r3, r3
 80010e2:	68fa      	ldr	r2, [r7, #12]
 80010e4:	4013      	ands	r3, r2
 80010e6:	60fb      	str	r3, [r7, #12]
 80010e8:	78f9      	ldrb	r1, [r7, #3]
 80010ea:	78bb      	ldrb	r3, [r7, #2]
 80010ec:	1fda      	subs	r2, r3, #7
 80010ee:	4613      	mov	r3, r2
 80010f0:	009b      	lsls	r3, r3, #2
 80010f2:	4413      	add	r3, r2
 80010f4:	fa01 f303 	lsl.w	r3, r1, r3
 80010f8:	60bb      	str	r3, [r7, #8]
 80010fa:	68fa      	ldr	r2, [r7, #12]
 80010fc:	68bb      	ldr	r3, [r7, #8]
 80010fe:	4313      	orrs	r3, r2
 8001100:	60fb      	str	r3, [r7, #12]
 8001102:	687b      	ldr	r3, [r7, #4]
 8001104:	68fa      	ldr	r2, [r7, #12]
 8001106:	631a      	str	r2, [r3, #48]	; 0x30
 8001108:	e022      	b.n	8001150 <ADC_RegularChannelConfig+0x188>
 800110a:	687b      	ldr	r3, [r7, #4]
 800110c:	6adb      	ldr	r3, [r3, #44]	; 0x2c
 800110e:	60fb      	str	r3, [r7, #12]
 8001110:	78bb      	ldrb	r3, [r7, #2]
 8001112:	f1a3 020d 	sub.w	r2, r3, #13
 8001116:	4613      	mov	r3, r2
 8001118:	009b      	lsls	r3, r3, #2
 800111a:	4413      	add	r3, r2
 800111c:	221f      	movs	r2, #31
 800111e:	fa02 f303 	lsl.w	r3, r2, r3
 8001122:	60bb      	str	r3, [r7, #8]
 8001124:	68bb      	ldr	r3, [r7, #8]
 8001126:	43db      	mvns	r3, r3
 8001128:	68fa      	ldr	r2, [r7, #12]
 800112a:	4013      	ands	r3, r2
 800112c:	60fb      	str	r3, [r7, #12]
 800112e:	78f9      	ldrb	r1, [r7, #3]
 8001130:	78bb      	ldrb	r3, [r7, #2]
 8001132:	f1a3 020d 	sub.w	r2, r3, #13
 8001136:	4613      	mov	r3, r2
 8001138:	009b      	lsls	r3, r3, #2
 800113a:	4413      	add	r3, r2
 800113c:	fa01 f303 	lsl.w	r3, r1, r3
 8001140:	60bb      	str	r3, [r7, #8]
 8001142:	68fa      	ldr	r2, [r7, #12]
 8001144:	68bb      	ldr	r3, [r7, #8]
 8001146:	4313      	orrs	r3, r2
 8001148:	60fb      	str	r3, [r7, #12]
 800114a:	687b      	ldr	r3, [r7, #4]
 800114c:	68fa      	ldr	r2, [r7, #12]
 800114e:	62da      	str	r2, [r3, #44]	; 0x2c
 8001150:	bf00      	nop
 8001152:	3714      	adds	r7, #20
 8001154:	46bd      	mov	sp, r7
 8001156:	f85d 7b04 	ldr.w	r7, [sp], #4
 800115a:	4770      	bx	lr

0800115c <ADC_SoftwareStartConv>:
 800115c:	b480      	push	{r7}
 800115e:	b083      	sub	sp, #12
 8001160:	af00      	add	r7, sp, #0
 8001162:	6078      	str	r0, [r7, #4]
 8001164:	687b      	ldr	r3, [r7, #4]
 8001166:	689b      	ldr	r3, [r3, #8]
 8001168:	f043 4280 	orr.w	r2, r3, #1073741824	; 0x40000000
 800116c:	687b      	ldr	r3, [r7, #4]
 800116e:	609a      	str	r2, [r3, #8]
 8001170:	bf00      	nop
 8001172:	370c      	adds	r7, #12
 8001174:	46bd      	mov	sp, r7
 8001176:	f85d 7b04 	ldr.w	r7, [sp], #4
 800117a:	4770      	bx	lr

0800117c <ADC_GetSoftwareStartConvStatus>:
 800117c:	b480      	push	{r7}
 800117e:	b085      	sub	sp, #20
 8001180:	af00      	add	r7, sp, #0
 8001182:	6078      	str	r0, [r7, #4]
 8001184:	2300      	movs	r3, #0
 8001186:	73fb      	strb	r3, [r7, #15]
 8001188:	687b      	ldr	r3, [r7, #4]
 800118a:	689b      	ldr	r3, [r3, #8]
 800118c:	f403 0380 	and.w	r3, r3, #4194304	; 0x400000
 8001190:	2b00      	cmp	r3, #0
 8001192:	d002      	beq.n	800119a <ADC_GetSoftwareStartConvStatus+0x1e>
 8001194:	2301      	movs	r3, #1
 8001196:	73fb      	strb	r3, [r7, #15]
 8001198:	e001      	b.n	800119e <ADC_GetSoftwareStartConvStatus+0x22>
 800119a:	2300      	movs	r3, #0
 800119c:	73fb      	strb	r3, [r7, #15]
 800119e:	7bfb      	ldrb	r3, [r7, #15]
 80011a0:	4618      	mov	r0, r3
 80011a2:	3714      	adds	r7, #20
 80011a4:	46bd      	mov	sp, r7
 80011a6:	f85d 7b04 	ldr.w	r7, [sp], #4
 80011aa:	4770      	bx	lr

080011ac <ADC_EOCOnEachRegularChannelCmd>:
 80011ac:	b480      	push	{r7}
 80011ae:	b083      	sub	sp, #12
 80011b0:	af00      	add	r7, sp, #0
 80011b2:	6078      	str	r0, [r7, #4]
 80011b4:	460b      	mov	r3, r1
 80011b6:	70fb      	strb	r3, [r7, #3]
 80011b8:	78fb      	ldrb	r3, [r7, #3]
 80011ba:	2b00      	cmp	r3, #0
 80011bc:	d006      	beq.n	80011cc <ADC_EOCOnEachRegularChannelCmd+0x20>
 80011be:	687b      	ldr	r3, [r7, #4]
 80011c0:	689b      	ldr	r3, [r3, #8]
 80011c2:	f443 6280 	orr.w	r2, r3, #1024	; 0x400
 80011c6:	687b      	ldr	r3, [r7, #4]
 80011c8:	609a      	str	r2, [r3, #8]
 80011ca:	e005      	b.n	80011d8 <ADC_EOCOnEachRegularChannelCmd+0x2c>
 80011cc:	687b      	ldr	r3, [r7, #4]
 80011ce:	689b      	ldr	r3, [r3, #8]
 80011d0:	f423 6280 	bic.w	r2, r3, #1024	; 0x400
 80011d4:	687b      	ldr	r3, [r7, #4]
 80011d6:	609a      	str	r2, [r3, #8]
 80011d8:	bf00      	nop
 80011da:	370c      	adds	r7, #12
 80011dc:	46bd      	mov	sp, r7
 80011de:	f85d 7b04 	ldr.w	r7, [sp], #4
 80011e2:	4770      	bx	lr

080011e4 <ADC_ContinuousModeCmd>:
 80011e4:	b480      	push	{r7}
 80011e6:	b083      	sub	sp, #12
 80011e8:	af00      	add	r7, sp, #0
 80011ea:	6078      	str	r0, [r7, #4]
 80011ec:	460b      	mov	r3, r1
 80011ee:	70fb      	strb	r3, [r7, #3]
 80011f0:	78fb      	ldrb	r3, [r7, #3]
 80011f2:	2b00      	cmp	r3, #0
 80011f4:	d006      	beq.n	8001204 <ADC_ContinuousModeCmd+0x20>
 80011f6:	687b      	ldr	r3, [r7, #4]
 80011f8:	689b      	ldr	r3, [r3, #8]
 80011fa:	f043 0202 	orr.w	r2, r3, #2
 80011fe:	687b      	ldr	r3, [r7, #4]
 8001200:	609a      	str	r2, [r3, #8]
 8001202:	e005      	b.n	8001210 <ADC_ContinuousModeCmd+0x2c>
 8001204:	687b      	ldr	r3, [r7, #4]
 8001206:	689b      	ldr	r3, [r3, #8]
 8001208:	f023 0202 	bic.w	r2, r3, #2
 800120c:	687b      	ldr	r3, [r7, #4]
 800120e:	609a      	str	r2, [r3, #8]
 8001210:	bf00      	nop
 8001212:	370c      	adds	r7, #12
 8001214:	46bd      	mov	sp, r7
 8001216:	f85d 7b04 	ldr.w	r7, [sp], #4
 800121a:	4770      	bx	lr

0800121c <ADC_DiscModeChannelCountConfig>:
 800121c:	b480      	push	{r7}
 800121e:	b085      	sub	sp, #20
 8001220:	af00      	add	r7, sp, #0
 8001222:	6078      	str	r0, [r7, #4]
 8001224:	460b      	mov	r3, r1
 8001226:	70fb      	strb	r3, [r7, #3]
 8001228:	2300      	movs	r3, #0
 800122a:	60fb      	str	r3, [r7, #12]
 800122c:	2300      	movs	r3, #0
 800122e:	60bb      	str	r3, [r7, #8]
 8001230:	687b      	ldr	r3, [r7, #4]
 8001232:	685b      	ldr	r3, [r3, #4]
 8001234:	60fb      	str	r3, [r7, #12]
 8001236:	68fb      	ldr	r3, [r7, #12]
 8001238:	f423 4360 	bic.w	r3, r3, #57344	; 0xe000
 800123c:	60fb      	str	r3, [r7, #12]
 800123e:	78fb      	ldrb	r3, [r7, #3]
 8001240:	3b01      	subs	r3, #1
 8001242:	60bb      	str	r3, [r7, #8]
 8001244:	68bb      	ldr	r3, [r7, #8]
 8001246:	035b      	lsls	r3, r3, #13
 8001248:	68fa      	ldr	r2, [r7, #12]
 800124a:	4313      	orrs	r3, r2
 800124c:	60fb      	str	r3, [r7, #12]
 800124e:	687b      	ldr	r3, [r7, #4]
 8001250:	68fa      	ldr	r2, [r7, #12]
 8001252:	605a      	str	r2, [r3, #4]
 8001254:	bf00      	nop
 8001256:	3714      	adds	r7, #20
 8001258:	46bd      	mov	sp, r7
 800125a:	f85d 7b04 	ldr.w	r7, [sp], #4
 800125e:	4770      	bx	lr

08001260 <ADC_DiscModeCmd>:
 8001260:	b480      	push	{r7}
 8001262:	b083      	sub	sp, #12
 8001264:	af00      	add	r7, sp, #0
 8001266:	6078      	str	r0, [r7, #4]
 8001268:	460b      	mov	r3, r1
 800126a:	70fb      	strb	r3, [r7, #3]
 800126c:	78fb      	ldrb	r3, [r7, #3]
 800126e:	2b00      	cmp	r3, #0
 8001270:	d006      	beq.n	8001280 <ADC_DiscModeCmd+0x20>
 8001272:	687b      	ldr	r3, [r7, #4]
 8001274:	685b      	ldr	r3, [r3, #4]
 8001276:	f443 6200 	orr.w	r2, r3, #2048	; 0x800
 800127a:	687b      	ldr	r3, [r7, #4]
 800127c:	605a      	str	r2, [r3, #4]
 800127e:	e005      	b.n	800128c <ADC_DiscModeCmd+0x2c>
 8001280:	687b      	ldr	r3, [r7, #4]
 8001282:	685b      	ldr	r3, [r3, #4]
 8001284:	f423 6200 	bic.w	r2, r3, #2048	; 0x800
 8001288:	687b      	ldr	r3, [r7, #4]
 800128a:	605a      	str	r2, [r3, #4]
 800128c:	bf00      	nop
 800128e:	370c      	adds	r7, #12
 8001290:	46bd      	mov	sp, r7
 8001292:	f85d 7b04 	ldr.w	r7, [sp], #4
 8001296:	4770      	bx	lr

08001298 <ADC_GetConversionValue>:
 8001298:	b480      	push	{r7}
 800129a:	b083      	sub	sp, #12
 800129c:	af00      	add	r7, sp, #0
 800129e:	6078      	str	r0, [r7, #4]
 80012a0:	687b      	ldr	r3, [r7, #4]
 80012a2:	6cdb      	ldr	r3, [r3, #76]	; 0x4c
 80012a4:	b29b      	uxth	r3, r3
 80012a6:	4618      	mov	r0, r3
 80012a8:	370c      	adds	r7, #12
 80012aa:	46bd      	mov	sp, r7
 80012ac:	f85d 7b04 	ldr.w	r7, [sp], #4
 80012b0:	4770      	bx	lr
 80012b2:	bf00      	nop

080012b4 <ADC_GetMultiModeConversionValue>:
 80012b4:	b480      	push	{r7}
 80012b6:	af00      	add	r7, sp, #0
 80012b8:	4b03      	ldr	r3, [pc, #12]	; (80012c8 <ADC_GetMultiModeConversionValue+0x14>)
 80012ba:	681b      	ldr	r3, [r3, #0]
 80012bc:	4618      	mov	r0, r3
 80012be:	46bd      	mov	sp, r7
 80012c0:	f85d 7b04 	ldr.w	r7, [sp], #4
 80012c4:	4770      	bx	lr
 80012c6:	bf00      	nop
 80012c8:	40012308 	andmi	r2, r1, r8, lsl #6

080012cc <ADC_DMACmd>:
 80012cc:	b480      	push	{r7}
 80012ce:	b083      	sub	sp, #12
 80012d0:	af00      	add	r7, sp, #0
 80012d2:	6078      	str	r0, [r7, #4]
 80012d4:	460b      	mov	r3, r1
 80012d6:	70fb      	strb	r3, [r7, #3]
 80012d8:	78fb      	ldrb	r3, [r7, #3]
 80012da:	2b00      	cmp	r3, #0
 80012dc:	d006      	beq.n	80012ec <ADC_DMACmd+0x20>
 80012de:	687b      	ldr	r3, [r7, #4]
 80012e0:	689b      	ldr	r3, [r3, #8]
 80012e2:	f443 7280 	orr.w	r2, r3, #256	; 0x100
 80012e6:	687b      	ldr	r3, [r7, #4]
 80012e8:	609a      	str	r2, [r3, #8]
 80012ea:	e005      	b.n	80012f8 <ADC_DMACmd+0x2c>
 80012ec:	687b      	ldr	r3, [r7, #4]
 80012ee:	689b      	ldr	r3, [r3, #8]
 80012f0:	f423 7280 	bic.w	r2, r3, #256	; 0x100
 80012f4:	687b      	ldr	r3, [r7, #4]
 80012f6:	609a      	str	r2, [r3, #8]
 80012f8:	bf00      	nop
 80012fa:	370c      	adds	r7, #12
 80012fc:	46bd      	mov	sp, r7
 80012fe:	f85d 7b04 	ldr.w	r7, [sp], #4
 8001302:	4770      	bx	lr

08001304 <ADC_DMARequestAfterLastTransferCmd>:
 8001304:	b480      	push	{r7}
 8001306:	b083      	sub	sp, #12
 8001308:	af00      	add	r7, sp, #0
 800130a:	6078      	str	r0, [r7, #4]
 800130c:	460b      	mov	r3, r1
 800130e:	70fb      	strb	r3, [r7, #3]
 8001310:	78fb      	ldrb	r3, [r7, #3]
 8001312:	2b00      	cmp	r3, #0
 8001314:	d006      	beq.n	8001324 <ADC_DMARequestAfterLastTransferCmd+0x20>
 8001316:	687b      	ldr	r3, [r7, #4]
 8001318:	689b      	ldr	r3, [r3, #8]
 800131a:	f443 7200 	orr.w	r2, r3, #512	; 0x200
 800131e:	687b      	ldr	r3, [r7, #4]
 8001320:	609a      	str	r2, [r3, #8]
 8001322:	e005      	b.n	8001330 <ADC_DMARequestAfterLastTransferCmd+0x2c>
 8001324:	687b      	ldr	r3, [r7, #4]
 8001326:	689b      	ldr	r3, [r3, #8]
 8001328:	f423 7200 	bic.w	r2, r3, #512	; 0x200
 800132c:	687b      	ldr	r3, [r7, #4]
 800132e:	609a      	str	r2, [r3, #8]
 8001330:	bf00      	nop
 8001332:	370c      	adds	r7, #12
 8001334:	46bd      	mov	sp, r7
 8001336:	f85d 7b04 	ldr.w	r7, [sp], #4
 800133a:	4770      	bx	lr

0800133c <ADC_MultiModeDMARequestAfterLastTransferCmd>:
 800133c:	b480      	push	{r7}
 800133e:	b083      	sub	sp, #12
 8001340:	af00      	add	r7, sp, #0
 8001342:	4603      	mov	r3, r0
 8001344:	71fb      	strb	r3, [r7, #7]
 8001346:	79fb      	ldrb	r3, [r7, #7]
 8001348:	2b00      	cmp	r3, #0
 800134a:	d006      	beq.n	800135a <ADC_MultiModeDMARequestAfterLastTransferCmd+0x1e>
 800134c:	4a09      	ldr	r2, [pc, #36]	; (8001374 <ADC_MultiModeDMARequestAfterLastTransferCmd+0x38>)
 800134e:	4b09      	ldr	r3, [pc, #36]	; (8001374 <ADC_MultiModeDMARequestAfterLastTransferCmd+0x38>)
 8001350:	685b      	ldr	r3, [r3, #4]
 8001352:	f443 5300 	orr.w	r3, r3, #8192	; 0x2000
 8001356:	6053      	str	r3, [r2, #4]
 8001358:	e005      	b.n	8001366 <ADC_MultiModeDMARequestAfterLastTransferCmd+0x2a>
 800135a:	4a06      	ldr	r2, [pc, #24]	; (8001374 <ADC_MultiModeDMARequestAfterLastTransferCmd+0x38>)
 800135c:	4b05      	ldr	r3, [pc, #20]	; (8001374 <ADC_MultiModeDMARequestAfterLastTransferCmd+0x38>)
 800135e:	685b      	ldr	r3, [r3, #4]
 8001360:	f423 5300 	bic.w	r3, r3, #8192	; 0x2000
 8001364:	6053      	str	r3, [r2, #4]
 8001366:	bf00      	nop
 8001368:	370c      	adds	r7, #12
 800136a:	46bd      	mov	sp, r7
 800136c:	f85d 7b04 	ldr.w	r7, [sp], #4
 8001370:	4770      	bx	lr
 8001372:	bf00      	nop
 8001374:	40012300 	andmi	r2, r1, r0, lsl #6

08001378 <ADC_InjectedChannelConfig>:
 8001378:	b480      	push	{r7}
 800137a:	b087      	sub	sp, #28
 800137c:	af00      	add	r7, sp, #0
 800137e:	6078      	str	r0, [r7, #4]
 8001380:	4608      	mov	r0, r1
 8001382:	4611      	mov	r1, r2
 8001384:	461a      	mov	r2, r3
 8001386:	4603      	mov	r3, r0
 8001388:	70fb      	strb	r3, [r7, #3]
 800138a:	460b      	mov	r3, r1
 800138c:	70bb      	strb	r3, [r7, #2]
 800138e:	4613      	mov	r3, r2
 8001390:	707b      	strb	r3, [r7, #1]
 8001392:	2300      	movs	r3, #0
 8001394:	617b      	str	r3, [r7, #20]
 8001396:	2300      	movs	r3, #0
 8001398:	613b      	str	r3, [r7, #16]
 800139a:	2300      	movs	r3, #0
 800139c:	60fb      	str	r3, [r7, #12]
 800139e:	78fb      	ldrb	r3, [r7, #3]
 80013a0:	2b09      	cmp	r3, #9
 80013a2:	d923      	bls.n	80013ec <ADC_InjectedChannelConfig+0x74>
 80013a4:	687b      	ldr	r3, [r7, #4]
 80013a6:	68db      	ldr	r3, [r3, #12]
 80013a8:	617b      	str	r3, [r7, #20]
 80013aa:	78fb      	ldrb	r3, [r7, #3]
 80013ac:	f1a3 020a 	sub.w	r2, r3, #10
 80013b0:	4613      	mov	r3, r2
 80013b2:	005b      	lsls	r3, r3, #1
 80013b4:	4413      	add	r3, r2
 80013b6:	2207      	movs	r2, #7
 80013b8:	fa02 f303 	lsl.w	r3, r2, r3
 80013bc:	613b      	str	r3, [r7, #16]
 80013be:	693b      	ldr	r3, [r7, #16]
 80013c0:	43db      	mvns	r3, r3
 80013c2:	697a      	ldr	r2, [r7, #20]
 80013c4:	4013      	ands	r3, r2
 80013c6:	617b      	str	r3, [r7, #20]
 80013c8:	7879      	ldrb	r1, [r7, #1]
 80013ca:	78fb      	ldrb	r3, [r7, #3]
 80013cc:	f1a3 020a 	sub.w	r2, r3, #10
 80013d0:	4613      	mov	r3, r2
 80013d2:	005b      	lsls	r3, r3, #1
 80013d4:	4413      	add	r3, r2
 80013d6:	fa01 f303 	lsl.w	r3, r1, r3
 80013da:	613b      	str	r3, [r7, #16]
 80013dc:	697a      	ldr	r2, [r7, #20]
 80013de:	693b      	ldr	r3, [r7, #16]
 80013e0:	4313      	orrs	r3, r2
 80013e2:	617b      	str	r3, [r7, #20]
 80013e4:	687b      	ldr	r3, [r7, #4]
 80013e6:	697a      	ldr	r2, [r7, #20]
 80013e8:	60da      	str	r2, [r3, #12]
 80013ea:	e01e      	b.n	800142a <ADC_InjectedChannelConfig+0xb2>
 80013ec:	687b      	ldr	r3, [r7, #4]
 80013ee:	691b      	ldr	r3, [r3, #16]
 80013f0:	617b      	str	r3, [r7, #20]
 80013f2:	78fa      	ldrb	r2, [r7, #3]
 80013f4:	4613      	mov	r3, r2
 80013f6:	005b      	lsls	r3, r3, #1
 80013f8:	4413      	add	r3, r2
 80013fa:	2207      	movs	r2, #7
 80013fc:	fa02 f303 	lsl.w	r3, r2, r3
 8001400:	613b      	str	r3, [r7, #16]
 8001402:	693b      	ldr	r3, [r7, #16]
 8001404:	43db      	mvns	r3, r3
 8001406:	697a      	ldr	r2, [r7, #20]
 8001408:	4013      	ands	r3, r2
 800140a:	617b      	str	r3, [r7, #20]
 800140c:	7879      	ldrb	r1, [r7, #1]
 800140e:	78fa      	ldrb	r2, [r7, #3]
 8001410:	4613      	mov	r3, r2
 8001412:	005b      	lsls	r3, r3, #1
 8001414:	4413      	add	r3, r2
 8001416:	fa01 f303 	lsl.w	r3, r1, r3
 800141a:	613b      	str	r3, [r7, #16]
 800141c:	697a      	ldr	r2, [r7, #20]
 800141e:	693b      	ldr	r3, [r7, #16]
 8001420:	4313      	orrs	r3, r2
 8001422:	617b      	str	r3, [r7, #20]
 8001424:	687b      	ldr	r3, [r7, #4]
 8001426:	697a      	ldr	r2, [r7, #20]
 8001428:	611a      	str	r2, [r3, #16]
 800142a:	687b      	ldr	r3, [r7, #4]
 800142c:	6b9b      	ldr	r3, [r3, #56]	; 0x38
 800142e:	617b      	str	r3, [r7, #20]
 8001430:	697b      	ldr	r3, [r7, #20]
 8001432:	0d1b      	lsrs	r3, r3, #20
 8001434:	f003 0303 	and.w	r3, r3, #3
 8001438:	60fb      	str	r3, [r7, #12]
 800143a:	68fb      	ldr	r3, [r7, #12]
 800143c:	b2db      	uxtb	r3, r3
 800143e:	78ba      	ldrb	r2, [r7, #2]
 8001440:	1ad3      	subs	r3, r2, r3
 8001442:	b2db      	uxtb	r3, r3
 8001444:	3302      	adds	r3, #2
 8001446:	b2db      	uxtb	r3, r3
 8001448:	461a      	mov	r2, r3
 800144a:	4613      	mov	r3, r2
 800144c:	009b      	lsls	r3, r3, #2
 800144e:	4413      	add	r3, r2
 8001450:	221f      	movs	r2, #31
 8001452:	fa02 f303 	lsl.w	r3, r2, r3
 8001456:	613b      	str	r3, [r7, #16]
 8001458:	693b      	ldr	r3, [r7, #16]
 800145a:	43db      	mvns	r3, r3
 800145c:	697a      	ldr	r2, [r7, #20]
 800145e:	4013      	ands	r3, r2
 8001460:	617b      	str	r3, [r7, #20]
 8001462:	78fa      	ldrb	r2, [r7, #3]
 8001464:	68fb      	ldr	r3, [r7, #12]
 8001466:	b2db      	uxtb	r3, r3
 8001468:	78b9      	ldrb	r1, [r7, #2]
 800146a:	1acb      	subs	r3, r1, r3
 800146c:	b2db      	uxtb	r3, r3
 800146e:	3302      	adds	r3, #2
 8001470:	b2db      	uxtb	r3, r3
 8001472:	4619      	mov	r1, r3
 8001474:	460b      	mov	r3, r1
 8001476:	009b      	lsls	r3, r3, #2
 8001478:	440b      	add	r3, r1
 800147a:	fa02 f303 	lsl.w	r3, r2, r3
 800147e:	613b      	str	r3, [r7, #16]
 8001480:	697a      	ldr	r2, [r7, #20]
 8001482:	693b      	ldr	r3, [r7, #16]
 8001484:	4313      	orrs	r3, r2
 8001486:	617b      	str	r3, [r7, #20]
 8001488:	687b      	ldr	r3, [r7, #4]
 800148a:	697a      	ldr	r2, [r7, #20]
 800148c:	639a      	str	r2, [r3, #56]	; 0x38
 800148e:	bf00      	nop
 8001490:	371c      	adds	r7, #28
 8001492:	46bd      	mov	sp, r7
 8001494:	f85d 7b04 	ldr.w	r7, [sp], #4
 8001498:	4770      	bx	lr
 800149a:	bf00      	nop

0800149c <ADC_InjectedSequencerLengthConfig>:
 800149c:	b480      	push	{r7}
 800149e:	b085      	sub	sp, #20
 80014a0:	af00      	add	r7, sp, #0
 80014a2:	6078      	str	r0, [r7, #4]
 80014a4:	460b      	mov	r3, r1
 80014a6:	70fb      	strb	r3, [r7, #3]
 80014a8:	2300      	movs	r3, #0
 80014aa:	60fb      	str	r3, [r7, #12]
 80014ac:	2300      	movs	r3, #0
 80014ae:	60bb      	str	r3, [r7, #8]
 80014b0:	687b      	ldr	r3, [r7, #4]
 80014b2:	6b9b      	ldr	r3, [r3, #56]	; 0x38
 80014b4:	60fb      	str	r3, [r7, #12]
 80014b6:	68fb      	ldr	r3, [r7, #12]
 80014b8:	f423 1340 	bic.w	r3, r3, #3145728	; 0x300000
 80014bc:	60fb      	str	r3, [r7, #12]
 80014be:	78fb      	ldrb	r3, [r7, #3]
 80014c0:	3b01      	subs	r3, #1
 80014c2:	60bb      	str	r3, [r7, #8]
 80014c4:	68bb      	ldr	r3, [r7, #8]
 80014c6:	051b      	lsls	r3, r3, #20
 80014c8:	68fa      	ldr	r2, [r7, #12]
 80014ca:	4313      	orrs	r3, r2
 80014cc:	60fb      	str	r3, [r7, #12]
 80014ce:	687b      	ldr	r3, [r7, #4]
 80014d0:	68fa      	ldr	r2, [r7, #12]
 80014d2:	639a      	str	r2, [r3, #56]	; 0x38
 80014d4:	bf00      	nop
 80014d6:	3714      	adds	r7, #20
 80014d8:	46bd      	mov	sp, r7
 80014da:	f85d 7b04 	ldr.w	r7, [sp], #4
 80014de:	4770      	bx	lr

080014e0 <ADC_SetInjectedOffset>:
 80014e0:	b480      	push	{r7}
 80014e2:	b085      	sub	sp, #20
 80014e4:	af00      	add	r7, sp, #0
 80014e6:	6078      	str	r0, [r7, #4]
 80014e8:	460b      	mov	r3, r1
 80014ea:	70fb      	strb	r3, [r7, #3]
 80014ec:	4613      	mov	r3, r2
 80014ee:	803b      	strh	r3, [r7, #0]
 80014f0:	2300      	movs	r3, #0
 80014f2:	60fb      	str	r3, [r7, #12]
 80014f4:	687b      	ldr	r3, [r7, #4]
 80014f6:	60fb      	str	r3, [r7, #12]
 80014f8:	78fa      	ldrb	r2, [r7, #3]
 80014fa:	68fb      	ldr	r3, [r7, #12]
 80014fc:	4413      	add	r3, r2
 80014fe:	60fb      	str	r3, [r7, #12]
 8001500:	68fb      	ldr	r3, [r7, #12]
 8001502:	461a      	mov	r2, r3
 8001504:	883b      	ldrh	r3, [r7, #0]
 8001506:	6013      	str	r3, [r2, #0]
 8001508:	bf00      	nop
 800150a:	3714      	adds	r7, #20
 800150c:	46bd      	mov	sp, r7
 800150e:	f85d 7b04 	ldr.w	r7, [sp], #4
 8001512:	4770      	bx	lr

08001514 <ADC_ExternalTrigInjectedConvConfig>:
 8001514:	b480      	push	{r7}
 8001516:	b085      	sub	sp, #20
 8001518:	af00      	add	r7, sp, #0
 800151a:	6078      	str	r0, [r7, #4]
 800151c:	6039      	str	r1, [r7, #0]
 800151e:	2300      	movs	r3, #0
 8001520:	60fb      	str	r3, [r7, #12]
 8001522:	687b      	ldr	r3, [r7, #4]
 8001524:	689b      	ldr	r3, [r3, #8]
 8001526:	60fb      	str	r3, [r7, #12]
 8001528:	68fb      	ldr	r3, [r7, #12]
 800152a:	f423 2370 	bic.w	r3, r3, #983040	; 0xf0000
 800152e:	60fb      	str	r3, [r7, #12]
 8001530:	68fa      	ldr	r2, [r7, #12]
 8001532:	683b      	ldr	r3, [r7, #0]
 8001534:	4313      	orrs	r3, r2
 8001536:	60fb      	str	r3, [r7, #12]
 8001538:	687b      	ldr	r3, [r7, #4]
 800153a:	68fa      	ldr	r2, [r7, #12]
 800153c:	609a      	str	r2, [r3, #8]
 800153e:	bf00      	nop
 8001540:	3714      	adds	r7, #20
 8001542:	46bd      	mov	sp, r7
 8001544:	f85d 7b04 	ldr.w	r7, [sp], #4
 8001548:	4770      	bx	lr
 800154a:	bf00      	nop

0800154c <ADC_ExternalTrigInjectedConvEdgeConfig>:
 800154c:	b480      	push	{r7}
 800154e:	b085      	sub	sp, #20
 8001550:	af00      	add	r7, sp, #0
 8001552:	6078      	str	r0, [r7, #4]
 8001554:	6039      	str	r1, [r7, #0]
 8001556:	2300      	movs	r3, #0
 8001558:	60fb      	str	r3, [r7, #12]
 800155a:	687b      	ldr	r3, [r7, #4]
 800155c:	689b      	ldr	r3, [r3, #8]
 800155e:	60fb      	str	r3, [r7, #12]
 8001560:	68fb      	ldr	r3, [r7, #12]
 8001562:	f423 1340 	bic.w	r3, r3, #3145728	; 0x300000
 8001566:	60fb      	str	r3, [r7, #12]
 8001568:	68fa      	ldr	r2, [r7, #12]
 800156a:	683b      	ldr	r3, [r7, #0]
 800156c:	4313      	orrs	r3, r2
 800156e:	60fb      	str	r3, [r7, #12]
 8001570:	687b      	ldr	r3, [r7, #4]
 8001572:	68fa      	ldr	r2, [r7, #12]
 8001574:	609a      	str	r2, [r3, #8]
 8001576:	bf00      	nop
 8001578:	3714      	adds	r7, #20
 800157a:	46bd      	mov	sp, r7
 800157c:	f85d 7b04 	ldr.w	r7, [sp], #4
 8001580:	4770      	bx	lr
 8001582:	bf00      	nop

08001584 <ADC_SoftwareStartInjectedConv>:
 8001584:	b480      	push	{r7}
 8001586:	b083      	sub	sp, #12
 8001588:	af00      	add	r7, sp, #0
 800158a:	6078      	str	r0, [r7, #4]
 800158c:	687b      	ldr	r3, [r7, #4]
 800158e:	689b      	ldr	r3, [r3, #8]
 8001590:	f443 0280 	orr.w	r2, r3, #4194304	; 0x400000
 8001594:	687b      	ldr	r3, [r7, #4]
 8001596:	609a      	str	r2, [r3, #8]
 8001598:	bf00      	nop
 800159a:	370c      	adds	r7, #12
 800159c:	46bd      	mov	sp, r7
 800159e:	f85d 7b04 	ldr.w	r7, [sp], #4
 80015a2:	4770      	bx	lr

080015a4 <ADC_GetSoftwareStartInjectedConvCmdStatus>:
 80015a4:	b480      	push	{r7}
 80015a6:	b085      	sub	sp, #20
 80015a8:	af00      	add	r7, sp, #0
 80015aa:	6078      	str	r0, [r7, #4]
 80015ac:	2300      	movs	r3, #0
 80015ae:	73fb      	strb	r3, [r7, #15]
 80015b0:	687b      	ldr	r3, [r7, #4]
 80015b2:	689b      	ldr	r3, [r3, #8]
 80015b4:	f403 0380 	and.w	r3, r3, #4194304	; 0x400000
 80015b8:	2b00      	cmp	r3, #0
 80015ba:	d002      	beq.n	80015c2 <ADC_GetSoftwareStartInjectedConvCmdStatus+0x1e>
 80015bc:	2301      	movs	r3, #1
 80015be:	73fb      	strb	r3, [r7, #15]
 80015c0:	e001      	b.n	80015c6 <ADC_GetSoftwareStartInjectedConvCmdStatus+0x22>
 80015c2:	2300      	movs	r3, #0
 80015c4:	73fb      	strb	r3, [r7, #15]
 80015c6:	7bfb      	ldrb	r3, [r7, #15]
 80015c8:	4618      	mov	r0, r3
 80015ca:	3714      	adds	r7, #20
 80015cc:	46bd      	mov	sp, r7
 80015ce:	f85d 7b04 	ldr.w	r7, [sp], #4
 80015d2:	4770      	bx	lr

080015d4 <ADC_AutoInjectedConvCmd>:
 80015d4:	b480      	push	{r7}
 80015d6:	b083      	sub	sp, #12
 80015d8:	af00      	add	r7, sp, #0
 80015da:	6078      	str	r0, [r7, #4]
 80015dc:	460b      	mov	r3, r1
 80015de:	70fb      	strb	r3, [r7, #3]
 80015e0:	78fb      	ldrb	r3, [r7, #3]
 80015e2:	2b00      	cmp	r3, #0
 80015e4:	d006      	beq.n	80015f4 <ADC_AutoInjectedConvCmd+0x20>
 80015e6:	687b      	ldr	r3, [r7, #4]
 80015e8:	685b      	ldr	r3, [r3, #4]
 80015ea:	f443 6280 	orr.w	r2, r3, #1024	; 0x400
 80015ee:	687b      	ldr	r3, [r7, #4]
 80015f0:	605a      	str	r2, [r3, #4]
 80015f2:	e005      	b.n	8001600 <ADC_AutoInjectedConvCmd+0x2c>
 80015f4:	687b      	ldr	r3, [r7, #4]
 80015f6:	685b      	ldr	r3, [r3, #4]
 80015f8:	f423 6280 	bic.w	r2, r3, #1024	; 0x400
 80015fc:	687b      	ldr	r3, [r7, #4]
 80015fe:	605a      	str	r2, [r3, #4]
 8001600:	bf00      	nop
 8001602:	370c      	adds	r7, #12
 8001604:	46bd      	mov	sp, r7
 8001606:	f85d 7b04 	ldr.w	r7, [sp], #4
 800160a:	4770      	bx	lr

0800160c <ADC_InjectedDiscModeCmd>:
 800160c:	b480      	push	{r7}
 800160e:	b083      	sub	sp, #12
 8001610:	af00      	add	r7, sp, #0
 8001612:	6078      	str	r0, [r7, #4]
 8001614:	460b      	mov	r3, r1
 8001616:	70fb      	strb	r3, [r7, #3]
 8001618:	78fb      	ldrb	r3, [r7, #3]
 800161a:	2b00      	cmp	r3, #0
 800161c:	d006      	beq.n	800162c <ADC_InjectedDiscModeCmd+0x20>
 800161e:	687b      	ldr	r3, [r7, #4]
 8001620:	685b      	ldr	r3, [r3, #4]
 8001622:	f443 5280 	orr.w	r2, r3, #4096	; 0x1000
 8001626:	687b      	ldr	r3, [r7, #4]
 8001628:	605a      	str	r2, [r3, #4]
 800162a:	e005      	b.n	8001638 <ADC_InjectedDiscModeCmd+0x2c>
 800162c:	687b      	ldr	r3, [r7, #4]
 800162e:	685b      	ldr	r3, [r3, #4]
 8001630:	f423 5280 	bic.w	r2, r3, #4096	; 0x1000
 8001634:	687b      	ldr	r3, [r7, #4]
 8001636:	605a      	str	r2, [r3, #4]
 8001638:	bf00      	nop
 800163a:	370c      	adds	r7, #12
 800163c:	46bd      	mov	sp, r7
 800163e:	f85d 7b04 	ldr.w	r7, [sp], #4
 8001642:	4770      	bx	lr

08001644 <ADC_GetInjectedConversionValue>:
 8001644:	b480      	push	{r7}
 8001646:	b085      	sub	sp, #20
 8001648:	af00      	add	r7, sp, #0
 800164a:	6078      	str	r0, [r7, #4]
 800164c:	460b      	mov	r3, r1
 800164e:	70fb      	strb	r3, [r7, #3]
 8001650:	2300      	movs	r3, #0
 8001652:	60fb      	str	r3, [r7, #12]
 8001654:	687b      	ldr	r3, [r7, #4]
 8001656:	60fb      	str	r3, [r7, #12]
 8001658:	78fa      	ldrb	r2, [r7, #3]
 800165a:	68fb      	ldr	r3, [r7, #12]
 800165c:	4413      	add	r3, r2
 800165e:	3328      	adds	r3, #40	; 0x28
 8001660:	60fb      	str	r3, [r7, #12]
 8001662:	68fb      	ldr	r3, [r7, #12]
 8001664:	681b      	ldr	r3, [r3, #0]
 8001666:	b29b      	uxth	r3, r3
 8001668:	4618      	mov	r0, r3
 800166a:	3714      	adds	r7, #20
 800166c:	46bd      	mov	sp, r7
 800166e:	f85d 7b04 	ldr.w	r7, [sp], #4
 8001672:	4770      	bx	lr

08001674 <ADC_ITConfig>:
 8001674:	b480      	push	{r7}
 8001676:	b085      	sub	sp, #20
 8001678:	af00      	add	r7, sp, #0
 800167a:	6078      	str	r0, [r7, #4]
 800167c:	460b      	mov	r3, r1
 800167e:	807b      	strh	r3, [r7, #2]
 8001680:	4613      	mov	r3, r2
 8001682:	707b      	strb	r3, [r7, #1]
 8001684:	2300      	movs	r3, #0
 8001686:	60fb      	str	r3, [r7, #12]
 8001688:	887b      	ldrh	r3, [r7, #2]
 800168a:	b2db      	uxtb	r3, r3
 800168c:	60fb      	str	r3, [r7, #12]
 800168e:	2201      	movs	r2, #1
 8001690:	68fb      	ldr	r3, [r7, #12]
 8001692:	fa02 f303 	lsl.w	r3, r2, r3
 8001696:	60fb      	str	r3, [r7, #12]
 8001698:	787b      	ldrb	r3, [r7, #1]
 800169a:	2b00      	cmp	r3, #0
 800169c:	d006      	beq.n	80016ac <ADC_ITConfig+0x38>
 800169e:	687b      	ldr	r3, [r7, #4]
 80016a0:	685a      	ldr	r2, [r3, #4]
 80016a2:	68fb      	ldr	r3, [r7, #12]
 80016a4:	431a      	orrs	r2, r3
 80016a6:	687b      	ldr	r3, [r7, #4]
 80016a8:	605a      	str	r2, [r3, #4]
 80016aa:	e006      	b.n	80016ba <ADC_ITConfig+0x46>
 80016ac:	687b      	ldr	r3, [r7, #4]
 80016ae:	685a      	ldr	r2, [r3, #4]
 80016b0:	68fb      	ldr	r3, [r7, #12]
 80016b2:	43db      	mvns	r3, r3
 80016b4:	401a      	ands	r2, r3
 80016b6:	687b      	ldr	r3, [r7, #4]
 80016b8:	605a      	str	r2, [r3, #4]
 80016ba:	bf00      	nop
 80016bc:	3714      	adds	r7, #20
 80016be:	46bd      	mov	sp, r7
 80016c0:	f85d 7b04 	ldr.w	r7, [sp], #4
 80016c4:	4770      	bx	lr
 80016c6:	bf00      	nop

080016c8 <ADC_GetFlagStatus>:
 80016c8:	b480      	push	{r7}
 80016ca:	b085      	sub	sp, #20
 80016cc:	af00      	add	r7, sp, #0
 80016ce:	6078      	str	r0, [r7, #4]
 80016d0:	460b      	mov	r3, r1
 80016d2:	70fb      	strb	r3, [r7, #3]
 80016d4:	2300      	movs	r3, #0
 80016d6:	73fb      	strb	r3, [r7, #15]
 80016d8:	687b      	ldr	r3, [r7, #4]
 80016da:	681a      	ldr	r2, [r3, #0]
 80016dc:	78fb      	ldrb	r3, [r7, #3]
 80016de:	4013      	ands	r3, r2
 80016e0:	2b00      	cmp	r3, #0
 80016e2:	d002      	beq.n	80016ea <ADC_GetFlagStatus+0x22>
 80016e4:	2301      	movs	r3, #1
 80016e6:	73fb      	strb	r3, [r7, #15]
 80016e8:	e001      	b.n	80016ee <ADC_GetFlagStatus+0x26>
 80016ea:	2300      	movs	r3, #0
 80016ec:	73fb      	strb	r3, [r7, #15]
 80016ee:	7bfb      	ldrb	r3, [r7, #15]
 80016f0:	4618      	mov	r0, r3
 80016f2:	3714      	adds	r7, #20
 80016f4:	46bd      	mov	sp, r7
 80016f6:	f85d 7b04 	ldr.w	r7, [sp], #4
 80016fa:	4770      	bx	lr

080016fc <ADC_ClearFlag>:
 80016fc:	b480      	push	{r7}
 80016fe:	b083      	sub	sp, #12
 8001700:	af00      	add	r7, sp, #0
 8001702:	6078      	str	r0, [r7, #4]
 8001704:	460b      	mov	r3, r1
 8001706:	70fb      	strb	r3, [r7, #3]
 8001708:	78fb      	ldrb	r3, [r7, #3]
 800170a:	43da      	mvns	r2, r3
 800170c:	687b      	ldr	r3, [r7, #4]
 800170e:	601a      	str	r2, [r3, #0]
 8001710:	bf00      	nop
 8001712:	370c      	adds	r7, #12
 8001714:	46bd      	mov	sp, r7
 8001716:	f85d 7b04 	ldr.w	r7, [sp], #4
 800171a:	4770      	bx	lr

0800171c <ADC_GetITStatus>:
 800171c:	b480      	push	{r7}
 800171e:	b087      	sub	sp, #28
 8001720:	af00      	add	r7, sp, #0
 8001722:	6078      	str	r0, [r7, #4]
 8001724:	460b      	mov	r3, r1
 8001726:	807b      	strh	r3, [r7, #2]
 8001728:	2300      	movs	r3, #0
 800172a:	75fb      	strb	r3, [r7, #23]
 800172c:	2300      	movs	r3, #0
 800172e:	613b      	str	r3, [r7, #16]
 8001730:	2300      	movs	r3, #0
 8001732:	60fb      	str	r3, [r7, #12]
 8001734:	887b      	ldrh	r3, [r7, #2]
 8001736:	0a1b      	lsrs	r3, r3, #8
 8001738:	b29b      	uxth	r3, r3
 800173a:	613b      	str	r3, [r7, #16]
 800173c:	687b      	ldr	r3, [r7, #4]
 800173e:	685a      	ldr	r2, [r3, #4]
 8001740:	887b      	ldrh	r3, [r7, #2]
 8001742:	b2db      	uxtb	r3, r3
 8001744:	4619      	mov	r1, r3
 8001746:	2301      	movs	r3, #1
 8001748:	408b      	lsls	r3, r1
 800174a:	4013      	ands	r3, r2
 800174c:	60fb      	str	r3, [r7, #12]
 800174e:	687b      	ldr	r3, [r7, #4]
 8001750:	681a      	ldr	r2, [r3, #0]
 8001752:	693b      	ldr	r3, [r7, #16]
 8001754:	4013      	ands	r3, r2
 8001756:	2b00      	cmp	r3, #0
 8001758:	d005      	beq.n	8001766 <ADC_GetITStatus+0x4a>
 800175a:	68fb      	ldr	r3, [r7, #12]
 800175c:	2b00      	cmp	r3, #0
 800175e:	d002      	beq.n	8001766 <ADC_GetITStatus+0x4a>
 8001760:	2301      	movs	r3, #1
 8001762:	75fb      	strb	r3, [r7, #23]
 8001764:	e001      	b.n	800176a <ADC_GetITStatus+0x4e>
 8001766:	2300      	movs	r3, #0
 8001768:	75fb      	strb	r3, [r7, #23]
 800176a:	7dfb      	ldrb	r3, [r7, #23]
 800176c:	4618      	mov	r0, r3
 800176e:	371c      	adds	r7, #28
 8001770:	46bd      	mov	sp, r7
 8001772:	f85d 7b04 	ldr.w	r7, [sp], #4
 8001776:	4770      	bx	lr

08001778 <ADC_ClearITPendingBit>:
 8001778:	b480      	push	{r7}
 800177a:	b085      	sub	sp, #20
 800177c:	af00      	add	r7, sp, #0
 800177e:	6078      	str	r0, [r7, #4]
 8001780:	460b      	mov	r3, r1
 8001782:	807b      	strh	r3, [r7, #2]
 8001784:	2300      	movs	r3, #0
 8001786:	73fb      	strb	r3, [r7, #15]
 8001788:	887b      	ldrh	r3, [r7, #2]
 800178a:	0a1b      	lsrs	r3, r3, #8
 800178c:	b29b      	uxth	r3, r3
 800178e:	73fb      	strb	r3, [r7, #15]
 8001790:	7bfb      	ldrb	r3, [r7, #15]
 8001792:	43da      	mvns	r2, r3
 8001794:	687b      	ldr	r3, [r7, #4]
 8001796:	601a      	str	r2, [r3, #0]
 8001798:	bf00      	nop
 800179a:	3714      	adds	r7, #20
 800179c:	46bd      	mov	sp, r7
 800179e:	f85d 7b04 	ldr.w	r7, [sp], #4
 80017a2:	4770      	bx	lr

080017a4 <CAN_DeInit>:
 80017a4:	b580      	push	{r7, lr}
 80017a6:	b082      	sub	sp, #8
 80017a8:	af00      	add	r7, sp, #0
 80017aa:	6078      	str	r0, [r7, #4]
 80017ac:	687b      	ldr	r3, [r7, #4]
 80017ae:	4a0e      	ldr	r2, [pc, #56]	; (80017e8 <CAN_DeInit+0x44>)
 80017b0:	4293      	cmp	r3, r2
 80017b2:	d10a      	bne.n	80017ca <CAN_DeInit+0x26>
 80017b4:	2101      	movs	r1, #1
 80017b6:	f04f 7000 	mov.w	r0, #33554432	; 0x2000000
 80017ba:	f008 ff83 	bl	800a6c4 <RCC_APB1PeriphResetCmd>
 80017be:	2100      	movs	r1, #0
 80017c0:	f04f 7000 	mov.w	r0, #33554432	; 0x2000000
 80017c4:	f008 ff7e 	bl	800a6c4 <RCC_APB1PeriphResetCmd>
 80017c8:	e009      	b.n	80017de <CAN_DeInit+0x3a>
 80017ca:	2101      	movs	r1, #1
 80017cc:	f04f 6080 	mov.w	r0, #67108864	; 0x4000000
 80017d0:	f008 ff78 	bl	800a6c4 <RCC_APB1PeriphResetCmd>
 80017d4:	2100      	movs	r1, #0
 80017d6:	f04f 6080 	mov.w	r0, #67108864	; 0x4000000
 80017da:	f008 ff73 	bl	800a6c4 <RCC_APB1PeriphResetCmd>
 80017de:	bf00      	nop
 80017e0:	3708      	adds	r7, #8
 80017e2:	46bd      	mov	sp, r7
 80017e4:	bd80      	pop	{r7, pc}
 80017e6:	bf00      	nop
 80017e8:	40006400 	andmi	r6, r0, r0, lsl #8

080017ec <CAN_Init>:
 80017ec:	b480      	push	{r7}
 80017ee:	b085      	sub	sp, #20
 80017f0:	af00      	add	r7, sp, #0
 80017f2:	6078      	str	r0, [r7, #4]
 80017f4:	6039      	str	r1, [r7, #0]
 80017f6:	2300      	movs	r3, #0
 80017f8:	73fb      	strb	r3, [r7, #15]
 80017fa:	2300      	movs	r3, #0
 80017fc:	60bb      	str	r3, [r7, #8]
 80017fe:	687b      	ldr	r3, [r7, #4]
 8001800:	681b      	ldr	r3, [r3, #0]
 8001802:	f023 0202 	bic.w	r2, r3, #2
 8001806:	687b      	ldr	r3, [r7, #4]
 8001808:	601a      	str	r2, [r3, #0]
 800180a:	687b      	ldr	r3, [r7, #4]
 800180c:	681b      	ldr	r3, [r3, #0]
 800180e:	f043 0201 	orr.w	r2, r3, #1
 8001812:	687b      	ldr	r3, [r7, #4]
 8001814:	601a      	str	r2, [r3, #0]
 8001816:	e002      	b.n	800181e <CAN_Init+0x32>
 8001818:	68bb      	ldr	r3, [r7, #8]
 800181a:	3301      	adds	r3, #1
 800181c:	60bb      	str	r3, [r7, #8]
 800181e:	687b      	ldr	r3, [r7, #4]
 8001820:	685b      	ldr	r3, [r3, #4]
 8001822:	f003 0301 	and.w	r3, r3, #1
 8001826:	2b00      	cmp	r3, #0
 8001828:	d104      	bne.n	8001834 <CAN_Init+0x48>
 800182a:	68bb      	ldr	r3, [r7, #8]
 800182c:	f64f 72ff 	movw	r2, #65535	; 0xffff
 8001830:	4293      	cmp	r3, r2
 8001832:	d1f1      	bne.n	8001818 <CAN_Init+0x2c>
 8001834:	687b      	ldr	r3, [r7, #4]
 8001836:	685b      	ldr	r3, [r3, #4]
 8001838:	f003 0301 	and.w	r3, r3, #1
 800183c:	2b00      	cmp	r3, #0
 800183e:	d102      	bne.n	8001846 <CAN_Init+0x5a>
 8001840:	2300      	movs	r3, #0
 8001842:	73fb      	strb	r3, [r7, #15]
 8001844:	e09c      	b.n	8001980 <CAN_Init+0x194>
 8001846:	683b      	ldr	r3, [r7, #0]
 8001848:	799b      	ldrb	r3, [r3, #6]
 800184a:	2b01      	cmp	r3, #1
 800184c:	d106      	bne.n	800185c <CAN_Init+0x70>
 800184e:	687b      	ldr	r3, [r7, #4]
 8001850:	681b      	ldr	r3, [r3, #0]
 8001852:	f043 0280 	orr.w	r2, r3, #128	; 0x80
 8001856:	687b      	ldr	r3, [r7, #4]
 8001858:	601a      	str	r2, [r3, #0]
 800185a:	e005      	b.n	8001868 <CAN_Init+0x7c>
 800185c:	687b      	ldr	r3, [r7, #4]
 800185e:	681b      	ldr	r3, [r3, #0]
 8001860:	f023 0280 	bic.w	r2, r3, #128	; 0x80
 8001864:	687b      	ldr	r3, [r7, #4]
 8001866:	601a      	str	r2, [r3, #0]
 8001868:	683b      	ldr	r3, [r7, #0]
 800186a:	79db      	ldrb	r3, [r3, #7]
 800186c:	2b01      	cmp	r3, #1
 800186e:	d106      	bne.n	800187e <CAN_Init+0x92>
 8001870:	687b      	ldr	r3, [r7, #4]
 8001872:	681b      	ldr	r3, [r3, #0]
 8001874:	f043 0240 	orr.w	r2, r3, #64	; 0x40
 8001878:	687b      	ldr	r3, [r7, #4]
 800187a:	601a      	str	r2, [r3, #0]
 800187c:	e005      	b.n	800188a <CAN_Init+0x9e>
 800187e:	687b      	ldr	r3, [r7, #4]
 8001880:	681b      	ldr	r3, [r3, #0]
 8001882:	f023 0240 	bic.w	r2, r3, #64	; 0x40
 8001886:	687b      	ldr	r3, [r7, #4]
 8001888:	601a      	str	r2, [r3, #0]
 800188a:	683b      	ldr	r3, [r7, #0]
 800188c:	7a1b      	ldrb	r3, [r3, #8]
 800188e:	2b01      	cmp	r3, #1
 8001890:	d106      	bne.n	80018a0 <CAN_Init+0xb4>
 8001892:	687b      	ldr	r3, [r7, #4]
 8001894:	681b      	ldr	r3, [r3, #0]
 8001896:	f043 0220 	orr.w	r2, r3, #32
 800189a:	687b      	ldr	r3, [r7, #4]
 800189c:	601a      	str	r2, [r3, #0]
 800189e:	e005      	b.n	80018ac <CAN_Init+0xc0>
 80018a0:	687b      	ldr	r3, [r7, #4]
 80018a2:	681b      	ldr	r3, [r3, #0]
 80018a4:	f023 0220 	bic.w	r2, r3, #32
 80018a8:	687b      	ldr	r3, [r7, #4]
 80018aa:	601a      	str	r2, [r3, #0]
 80018ac:	683b      	ldr	r3, [r7, #0]
 80018ae:	7a5b      	ldrb	r3, [r3, #9]
 80018b0:	2b01      	cmp	r3, #1
 80018b2:	d106      	bne.n	80018c2 <CAN_Init+0xd6>
 80018b4:	687b      	ldr	r3, [r7, #4]
 80018b6:	681b      	ldr	r3, [r3, #0]
 80018b8:	f043 0210 	orr.w	r2, r3, #16
 80018bc:	687b      	ldr	r3, [r7, #4]
 80018be:	601a      	str	r2, [r3, #0]
 80018c0:	e005      	b.n	80018ce <CAN_Init+0xe2>
 80018c2:	687b      	ldr	r3, [r7, #4]
 80018c4:	681b      	ldr	r3, [r3, #0]
 80018c6:	f023 0210 	bic.w	r2, r3, #16
 80018ca:	687b      	ldr	r3, [r7, #4]
 80018cc:	601a      	str	r2, [r3, #0]
 80018ce:	683b      	ldr	r3, [r7, #0]
 80018d0:	7a9b      	ldrb	r3, [r3, #10]
 80018d2:	2b01      	cmp	r3, #1
 80018d4:	d106      	bne.n	80018e4 <CAN_Init+0xf8>
 80018d6:	687b      	ldr	r3, [r7, #4]
 80018d8:	681b      	ldr	r3, [r3, #0]
 80018da:	f043 0208 	orr.w	r2, r3, #8
 80018de:	687b      	ldr	r3, [r7, #4]
 80018e0:	601a      	str	r2, [r3, #0]
 80018e2:	e005      	b.n	80018f0 <CAN_Init+0x104>
 80018e4:	687b      	ldr	r3, [r7, #4]
 80018e6:	681b      	ldr	r3, [r3, #0]
 80018e8:	f023 0208 	bic.w	r2, r3, #8
 80018ec:	687b      	ldr	r3, [r7, #4]
 80018ee:	601a      	str	r2, [r3, #0]
 80018f0:	683b      	ldr	r3, [r7, #0]
 80018f2:	7adb      	ldrb	r3, [r3, #11]
 80018f4:	2b01      	cmp	r3, #1
 80018f6:	d106      	bne.n	8001906 <CAN_Init+0x11a>
 80018f8:	687b      	ldr	r3, [r7, #4]
 80018fa:	681b      	ldr	r3, [r3, #0]
 80018fc:	f043 0204 	orr.w	r2, r3, #4
 8001900:	687b      	ldr	r3, [r7, #4]
 8001902:	601a      	str	r2, [r3, #0]
 8001904:	e005      	b.n	8001912 <CAN_Init+0x126>
 8001906:	687b      	ldr	r3, [r7, #4]
 8001908:	681b      	ldr	r3, [r3, #0]
 800190a:	f023 0204 	bic.w	r2, r3, #4
 800190e:	687b      	ldr	r3, [r7, #4]
 8001910:	601a      	str	r2, [r3, #0]
 8001912:	683b      	ldr	r3, [r7, #0]
 8001914:	789b      	ldrb	r3, [r3, #2]
 8001916:	079a      	lsls	r2, r3, #30
 8001918:	683b      	ldr	r3, [r7, #0]
 800191a:	78db      	ldrb	r3, [r3, #3]
 800191c:	061b      	lsls	r3, r3, #24
 800191e:	431a      	orrs	r2, r3
 8001920:	683b      	ldr	r3, [r7, #0]
 8001922:	791b      	ldrb	r3, [r3, #4]
 8001924:	041b      	lsls	r3, r3, #16
 8001926:	431a      	orrs	r2, r3
 8001928:	683b      	ldr	r3, [r7, #0]
 800192a:	795b      	ldrb	r3, [r3, #5]
 800192c:	051b      	lsls	r3, r3, #20
 800192e:	431a      	orrs	r2, r3
 8001930:	683b      	ldr	r3, [r7, #0]
 8001932:	881b      	ldrh	r3, [r3, #0]
 8001934:	3b01      	subs	r3, #1
 8001936:	431a      	orrs	r2, r3
 8001938:	687b      	ldr	r3, [r7, #4]
 800193a:	61da      	str	r2, [r3, #28]
 800193c:	687b      	ldr	r3, [r7, #4]
 800193e:	681b      	ldr	r3, [r3, #0]
 8001940:	f023 0201 	bic.w	r2, r3, #1
 8001944:	687b      	ldr	r3, [r7, #4]
 8001946:	601a      	str	r2, [r3, #0]
 8001948:	2300      	movs	r3, #0
 800194a:	60bb      	str	r3, [r7, #8]
 800194c:	e002      	b.n	8001954 <CAN_Init+0x168>
 800194e:	68bb      	ldr	r3, [r7, #8]
 8001950:	3301      	adds	r3, #1
 8001952:	60bb      	str	r3, [r7, #8]
 8001954:	687b      	ldr	r3, [r7, #4]
 8001956:	685b      	ldr	r3, [r3, #4]
 8001958:	f003 0301 	and.w	r3, r3, #1
 800195c:	2b00      	cmp	r3, #0
 800195e:	d004      	beq.n	800196a <CAN_Init+0x17e>
 8001960:	68bb      	ldr	r3, [r7, #8]
 8001962:	f64f 72ff 	movw	r2, #65535	; 0xffff
 8001966:	4293      	cmp	r3, r2
 8001968:	d1f1      	bne.n	800194e <CAN_Init+0x162>
 800196a:	687b      	ldr	r3, [r7, #4]
 800196c:	685b      	ldr	r3, [r3, #4]
 800196e:	f003 0301 	and.w	r3, r3, #1
 8001972:	2b00      	cmp	r3, #0
 8001974:	d002      	beq.n	800197c <CAN_Init+0x190>
 8001976:	2300      	movs	r3, #0
 8001978:	73fb      	strb	r3, [r7, #15]
 800197a:	e001      	b.n	8001980 <CAN_Init+0x194>
 800197c:	2301      	movs	r3, #1
 800197e:	73fb      	strb	r3, [r7, #15]
 8001980:	7bfb      	ldrb	r3, [r7, #15]
 8001982:	4618      	mov	r0, r3
 8001984:	3714      	adds	r7, #20
 8001986:	46bd      	mov	sp, r7
 8001988:	f85d 7b04 	ldr.w	r7, [sp], #4
 800198c:	4770      	bx	lr
 800198e:	bf00      	nop

08001990 <CAN_FilterInit>:
 8001990:	b480      	push	{r7}
 8001992:	b085      	sub	sp, #20
 8001994:	af00      	add	r7, sp, #0
 8001996:	6078      	str	r0, [r7, #4]
 8001998:	2300      	movs	r3, #0
 800199a:	60fb      	str	r3, [r7, #12]
 800199c:	687b      	ldr	r3, [r7, #4]
 800199e:	7a9b      	ldrb	r3, [r3, #10]
 80019a0:	461a      	mov	r2, r3
 80019a2:	2301      	movs	r3, #1
 80019a4:	4093      	lsls	r3, r2
 80019a6:	60fb      	str	r3, [r7, #12]
 80019a8:	4a56      	ldr	r2, [pc, #344]	; (8001b04 <CAN_FilterInit+0x174>)
 80019aa:	4b56      	ldr	r3, [pc, #344]	; (8001b04 <CAN_FilterInit+0x174>)
 80019ac:	f8d3 3200 	ldr.w	r3, [r3, #512]	; 0x200
 80019b0:	f043 0301 	orr.w	r3, r3, #1
 80019b4:	f8c2 3200 	str.w	r3, [r2, #512]	; 0x200
 80019b8:	4952      	ldr	r1, [pc, #328]	; (8001b04 <CAN_FilterInit+0x174>)
 80019ba:	4b52      	ldr	r3, [pc, #328]	; (8001b04 <CAN_FilterInit+0x174>)
 80019bc:	f8d3 221c 	ldr.w	r2, [r3, #540]	; 0x21c
 80019c0:	68fb      	ldr	r3, [r7, #12]
 80019c2:	43db      	mvns	r3, r3
 80019c4:	4013      	ands	r3, r2
 80019c6:	f8c1 321c 	str.w	r3, [r1, #540]	; 0x21c
 80019ca:	687b      	ldr	r3, [r7, #4]
 80019cc:	7b1b      	ldrb	r3, [r3, #12]
 80019ce:	2b00      	cmp	r3, #0
 80019d0:	d125      	bne.n	8001a1e <CAN_FilterInit+0x8e>
 80019d2:	494c      	ldr	r1, [pc, #304]	; (8001b04 <CAN_FilterInit+0x174>)
 80019d4:	4b4b      	ldr	r3, [pc, #300]	; (8001b04 <CAN_FilterInit+0x174>)
 80019d6:	f8d3 220c 	ldr.w	r2, [r3, #524]	; 0x20c
 80019da:	68fb      	ldr	r3, [r7, #12]
 80019dc:	43db      	mvns	r3, r3
 80019de:	4013      	ands	r3, r2
 80019e0:	f8c1 320c 	str.w	r3, [r1, #524]	; 0x20c
 80019e4:	4947      	ldr	r1, [pc, #284]	; (8001b04 <CAN_FilterInit+0x174>)
 80019e6:	687b      	ldr	r3, [r7, #4]
 80019e8:	7a9b      	ldrb	r3, [r3, #10]
 80019ea:	4618      	mov	r0, r3
 80019ec:	687b      	ldr	r3, [r7, #4]
 80019ee:	88db      	ldrh	r3, [r3, #6]
 80019f0:	041b      	lsls	r3, r3, #16
 80019f2:	687a      	ldr	r2, [r7, #4]
 80019f4:	8852      	ldrh	r2, [r2, #2]
 80019f6:	431a      	orrs	r2, r3
 80019f8:	f100 0348 	add.w	r3, r0, #72	; 0x48
 80019fc:	f841 2033 	str.w	r2, [r1, r3, lsl #3]
 8001a00:	4940      	ldr	r1, [pc, #256]	; (8001b04 <CAN_FilterInit+0x174>)
 8001a02:	687b      	ldr	r3, [r7, #4]
 8001a04:	7a9b      	ldrb	r3, [r3, #10]
 8001a06:	4618      	mov	r0, r3
 8001a08:	687b      	ldr	r3, [r7, #4]
 8001a0a:	889b      	ldrh	r3, [r3, #4]
 8001a0c:	041b      	lsls	r3, r3, #16
 8001a0e:	687a      	ldr	r2, [r7, #4]
 8001a10:	8812      	ldrh	r2, [r2, #0]
 8001a12:	431a      	orrs	r2, r3
 8001a14:	f100 0348 	add.w	r3, r0, #72	; 0x48
 8001a18:	00db      	lsls	r3, r3, #3
 8001a1a:	440b      	add	r3, r1
 8001a1c:	605a      	str	r2, [r3, #4]
 8001a1e:	687b      	ldr	r3, [r7, #4]
 8001a20:	7b1b      	ldrb	r3, [r3, #12]
 8001a22:	2b01      	cmp	r3, #1
 8001a24:	d124      	bne.n	8001a70 <CAN_FilterInit+0xe0>
 8001a26:	4937      	ldr	r1, [pc, #220]	; (8001b04 <CAN_FilterInit+0x174>)
 8001a28:	4b36      	ldr	r3, [pc, #216]	; (8001b04 <CAN_FilterInit+0x174>)
 8001a2a:	f8d3 220c 	ldr.w	r2, [r3, #524]	; 0x20c
 8001a2e:	68fb      	ldr	r3, [r7, #12]
 8001a30:	4313      	orrs	r3, r2
 8001a32:	f8c1 320c 	str.w	r3, [r1, #524]	; 0x20c
 8001a36:	4933      	ldr	r1, [pc, #204]	; (8001b04 <CAN_FilterInit+0x174>)
 8001a38:	687b      	ldr	r3, [r7, #4]
 8001a3a:	7a9b      	ldrb	r3, [r3, #10]
 8001a3c:	4618      	mov	r0, r3
 8001a3e:	687b      	ldr	r3, [r7, #4]
 8001a40:	881b      	ldrh	r3, [r3, #0]
 8001a42:	041b      	lsls	r3, r3, #16
 8001a44:	687a      	ldr	r2, [r7, #4]
 8001a46:	8852      	ldrh	r2, [r2, #2]
 8001a48:	431a      	orrs	r2, r3
 8001a4a:	f100 0348 	add.w	r3, r0, #72	; 0x48
 8001a4e:	f841 2033 	str.w	r2, [r1, r3, lsl #3]
 8001a52:	492c      	ldr	r1, [pc, #176]	; (8001b04 <CAN_FilterInit+0x174>)
 8001a54:	687b      	ldr	r3, [r7, #4]
 8001a56:	7a9b      	ldrb	r3, [r3, #10]
 8001a58:	4618      	mov	r0, r3
 8001a5a:	687b      	ldr	r3, [r7, #4]
 8001a5c:	889b      	ldrh	r3, [r3, #4]
 8001a5e:	041b      	lsls	r3, r3, #16
 8001a60:	687a      	ldr	r2, [r7, #4]
 8001a62:	88d2      	ldrh	r2, [r2, #6]
 8001a64:	431a      	orrs	r2, r3
 8001a66:	f100 0348 	add.w	r3, r0, #72	; 0x48
 8001a6a:	00db      	lsls	r3, r3, #3
 8001a6c:	440b      	add	r3, r1
 8001a6e:	605a      	str	r2, [r3, #4]
 8001a70:	687b      	ldr	r3, [r7, #4]
 8001a72:	7adb      	ldrb	r3, [r3, #11]
 8001a74:	2b00      	cmp	r3, #0
 8001a76:	d109      	bne.n	8001a8c <CAN_FilterInit+0xfc>
 8001a78:	4922      	ldr	r1, [pc, #136]	; (8001b04 <CAN_FilterInit+0x174>)
 8001a7a:	4b22      	ldr	r3, [pc, #136]	; (8001b04 <CAN_FilterInit+0x174>)
 8001a7c:	f8d3 2204 	ldr.w	r2, [r3, #516]	; 0x204
 8001a80:	68fb      	ldr	r3, [r7, #12]
 8001a82:	43db      	mvns	r3, r3
 8001a84:	4013      	ands	r3, r2
 8001a86:	f8c1 3204 	str.w	r3, [r1, #516]	; 0x204
 8001a8a:	e007      	b.n	8001a9c <CAN_FilterInit+0x10c>
 8001a8c:	491d      	ldr	r1, [pc, #116]	; (8001b04 <CAN_FilterInit+0x174>)
 8001a8e:	4b1d      	ldr	r3, [pc, #116]	; (8001b04 <CAN_FilterInit+0x174>)
 8001a90:	f8d3 2204 	ldr.w	r2, [r3, #516]	; 0x204
 8001a94:	68fb      	ldr	r3, [r7, #12]
 8001a96:	4313      	orrs	r3, r2
 8001a98:	f8c1 3204 	str.w	r3, [r1, #516]	; 0x204
 8001a9c:	687b      	ldr	r3, [r7, #4]
 8001a9e:	891b      	ldrh	r3, [r3, #8]
 8001aa0:	2b00      	cmp	r3, #0
 8001aa2:	d108      	bne.n	8001ab6 <CAN_FilterInit+0x126>
 8001aa4:	4917      	ldr	r1, [pc, #92]	; (8001b04 <CAN_FilterInit+0x174>)
 8001aa6:	4b17      	ldr	r3, [pc, #92]	; (8001b04 <CAN_FilterInit+0x174>)
 8001aa8:	f8d3 2214 	ldr.w	r2, [r3, #532]	; 0x214
 8001aac:	68fb      	ldr	r3, [r7, #12]
 8001aae:	43db      	mvns	r3, r3
 8001ab0:	4013      	ands	r3, r2
 8001ab2:	f8c1 3214 	str.w	r3, [r1, #532]	; 0x214
 8001ab6:	687b      	ldr	r3, [r7, #4]
 8001ab8:	891b      	ldrh	r3, [r3, #8]
 8001aba:	2b01      	cmp	r3, #1
 8001abc:	d107      	bne.n	8001ace <CAN_FilterInit+0x13e>
 8001abe:	4911      	ldr	r1, [pc, #68]	; (8001b04 <CAN_FilterInit+0x174>)
 8001ac0:	4b10      	ldr	r3, [pc, #64]	; (8001b04 <CAN_FilterInit+0x174>)
 8001ac2:	f8d3 2214 	ldr.w	r2, [r3, #532]	; 0x214
 8001ac6:	68fb      	ldr	r3, [r7, #12]
 8001ac8:	4313      	orrs	r3, r2
 8001aca:	f8c1 3214 	str.w	r3, [r1, #532]	; 0x214
 8001ace:	687b      	ldr	r3, [r7, #4]
 8001ad0:	7b5b      	ldrb	r3, [r3, #13]
 8001ad2:	2b01      	cmp	r3, #1
 8001ad4:	d107      	bne.n	8001ae6 <CAN_FilterInit+0x156>
 8001ad6:	490b      	ldr	r1, [pc, #44]	; (8001b04 <CAN_FilterInit+0x174>)
 8001ad8:	4b0a      	ldr	r3, [pc, #40]	; (8001b04 <CAN_FilterInit+0x174>)
 8001ada:	f8d3 221c 	ldr.w	r2, [r3, #540]	; 0x21c
 8001ade:	68fb      	ldr	r3, [r7, #12]
 8001ae0:	4313      	orrs	r3, r2
 8001ae2:	f8c1 321c 	str.w	r3, [r1, #540]	; 0x21c
 8001ae6:	4a07      	ldr	r2, [pc, #28]	; (8001b04 <CAN_FilterInit+0x174>)
 8001ae8:	4b06      	ldr	r3, [pc, #24]	; (8001b04 <CAN_FilterInit+0x174>)
 8001aea:	f8d3 3200 	ldr.w	r3, [r3, #512]	; 0x200
 8001aee:	f023 0301 	bic.w	r3, r3, #1
 8001af2:	f8c2 3200 	str.w	r3, [r2, #512]	; 0x200
 8001af6:	bf00      	nop
 8001af8:	3714      	adds	r7, #20
 8001afa:	46bd      	mov	sp, r7
 8001afc:	f85d 7b04 	ldr.w	r7, [sp], #4
 8001b00:	4770      	bx	lr
 8001b02:	bf00      	nop
 8001b04:	40006400 	andmi	r6, r0, r0, lsl #8

08001b08 <CAN_StructInit>:
 8001b08:	b480      	push	{r7}
 8001b0a:	b083      	sub	sp, #12
 8001b0c:	af00      	add	r7, sp, #0
 8001b0e:	6078      	str	r0, [r7, #4]
 8001b10:	687b      	ldr	r3, [r7, #4]
 8001b12:	2200      	movs	r2, #0
 8001b14:	719a      	strb	r2, [r3, #6]
 8001b16:	687b      	ldr	r3, [r7, #4]
 8001b18:	2200      	movs	r2, #0
 8001b1a:	71da      	strb	r2, [r3, #7]
 8001b1c:	687b      	ldr	r3, [r7, #4]
 8001b1e:	2200      	movs	r2, #0
 8001b20:	721a      	strb	r2, [r3, #8]
 8001b22:	687b      	ldr	r3, [r7, #4]
 8001b24:	2200      	movs	r2, #0
 8001b26:	725a      	strb	r2, [r3, #9]
 8001b28:	687b      	ldr	r3, [r7, #4]
 8001b2a:	2200      	movs	r2, #0
 8001b2c:	729a      	strb	r2, [r3, #10]
 8001b2e:	687b      	ldr	r3, [r7, #4]
 8001b30:	2200      	movs	r2, #0
 8001b32:	72da      	strb	r2, [r3, #11]
 8001b34:	687b      	ldr	r3, [r7, #4]
 8001b36:	2200      	movs	r2, #0
 8001b38:	709a      	strb	r2, [r3, #2]
 8001b3a:	687b      	ldr	r3, [r7, #4]
 8001b3c:	2200      	movs	r2, #0
 8001b3e:	70da      	strb	r2, [r3, #3]
 8001b40:	687b      	ldr	r3, [r7, #4]
 8001b42:	2203      	movs	r2, #3
 8001b44:	711a      	strb	r2, [r3, #4]
 8001b46:	687b      	ldr	r3, [r7, #4]
 8001b48:	2202      	movs	r2, #2
 8001b4a:	715a      	strb	r2, [r3, #5]
 8001b4c:	687b      	ldr	r3, [r7, #4]
 8001b4e:	2201      	movs	r2, #1
 8001b50:	801a      	strh	r2, [r3, #0]
 8001b52:	bf00      	nop
 8001b54:	370c      	adds	r7, #12
 8001b56:	46bd      	mov	sp, r7
 8001b58:	f85d 7b04 	ldr.w	r7, [sp], #4
 8001b5c:	4770      	bx	lr
 8001b5e:	bf00      	nop

08001b60 <CAN_SlaveStartBank>:
 8001b60:	b480      	push	{r7}
 8001b62:	b083      	sub	sp, #12
 8001b64:	af00      	add	r7, sp, #0
 8001b66:	4603      	mov	r3, r0
 8001b68:	71fb      	strb	r3, [r7, #7]
 8001b6a:	4a14      	ldr	r2, [pc, #80]	; (8001bbc <CAN_SlaveStartBank+0x5c>)
 8001b6c:	4b13      	ldr	r3, [pc, #76]	; (8001bbc <CAN_SlaveStartBank+0x5c>)
 8001b6e:	f8d3 3200 	ldr.w	r3, [r3, #512]	; 0x200
 8001b72:	f043 0301 	orr.w	r3, r3, #1
 8001b76:	f8c2 3200 	str.w	r3, [r2, #512]	; 0x200
 8001b7a:	4a10      	ldr	r2, [pc, #64]	; (8001bbc <CAN_SlaveStartBank+0x5c>)
 8001b7c:	4b0f      	ldr	r3, [pc, #60]	; (8001bbc <CAN_SlaveStartBank+0x5c>)
 8001b7e:	f8d3 3200 	ldr.w	r3, [r3, #512]	; 0x200
 8001b82:	f423 537c 	bic.w	r3, r3, #16128	; 0x3f00
 8001b86:	f023 030e 	bic.w	r3, r3, #14
 8001b8a:	f8c2 3200 	str.w	r3, [r2, #512]	; 0x200
 8001b8e:	490b      	ldr	r1, [pc, #44]	; (8001bbc <CAN_SlaveStartBank+0x5c>)
 8001b90:	4b0a      	ldr	r3, [pc, #40]	; (8001bbc <CAN_SlaveStartBank+0x5c>)
 8001b92:	f8d3 2200 	ldr.w	r2, [r3, #512]	; 0x200
 8001b96:	79fb      	ldrb	r3, [r7, #7]
 8001b98:	021b      	lsls	r3, r3, #8
 8001b9a:	4313      	orrs	r3, r2
 8001b9c:	f8c1 3200 	str.w	r3, [r1, #512]	; 0x200
 8001ba0:	4a06      	ldr	r2, [pc, #24]	; (8001bbc <CAN_SlaveStartBank+0x5c>)
 8001ba2:	4b06      	ldr	r3, [pc, #24]	; (8001bbc <CAN_SlaveStartBank+0x5c>)
 8001ba4:	f8d3 3200 	ldr.w	r3, [r3, #512]	; 0x200
 8001ba8:	f023 0301 	bic.w	r3, r3, #1
 8001bac:	f8c2 3200 	str.w	r3, [r2, #512]	; 0x200
 8001bb0:	bf00      	nop
 8001bb2:	370c      	adds	r7, #12
 8001bb4:	46bd      	mov	sp, r7
 8001bb6:	f85d 7b04 	ldr.w	r7, [sp], #4
 8001bba:	4770      	bx	lr
 8001bbc:	40006400 	andmi	r6, r0, r0, lsl #8

08001bc0 <CAN_DBGFreeze>:
 8001bc0:	b480      	push	{r7}
 8001bc2:	b083      	sub	sp, #12
 8001bc4:	af00      	add	r7, sp, #0
 8001bc6:	6078      	str	r0, [r7, #4]
 8001bc8:	460b      	mov	r3, r1
 8001bca:	70fb      	strb	r3, [r7, #3]
 8001bcc:	78fb      	ldrb	r3, [r7, #3]
 8001bce:	2b00      	cmp	r3, #0
 8001bd0:	d006      	beq.n	8001be0 <CAN_DBGFreeze+0x20>
 8001bd2:	687b      	ldr	r3, [r7, #4]
 8001bd4:	681b      	ldr	r3, [r3, #0]
 8001bd6:	f443 3280 	orr.w	r2, r3, #65536	; 0x10000
 8001bda:	687b      	ldr	r3, [r7, #4]
 8001bdc:	601a      	str	r2, [r3, #0]
 8001bde:	e005      	b.n	8001bec <CAN_DBGFreeze+0x2c>
 8001be0:	687b      	ldr	r3, [r7, #4]
 8001be2:	681b      	ldr	r3, [r3, #0]
 8001be4:	f423 3280 	bic.w	r2, r3, #65536	; 0x10000
 8001be8:	687b      	ldr	r3, [r7, #4]
 8001bea:	601a      	str	r2, [r3, #0]
 8001bec:	bf00      	nop
 8001bee:	370c      	adds	r7, #12
 8001bf0:	46bd      	mov	sp, r7
 8001bf2:	f85d 7b04 	ldr.w	r7, [sp], #4
 8001bf6:	4770      	bx	lr

08001bf8 <CAN_TTComModeCmd>:
 8001bf8:	b480      	push	{r7}
 8001bfa:	b083      	sub	sp, #12
 8001bfc:	af00      	add	r7, sp, #0
 8001bfe:	6078      	str	r0, [r7, #4]
 8001c00:	460b      	mov	r3, r1
 8001c02:	70fb      	strb	r3, [r7, #3]
 8001c04:	78fb      	ldrb	r3, [r7, #3]
 8001c06:	2b00      	cmp	r3, #0
 8001c08:	d01e      	beq.n	8001c48 <CAN_TTComModeCmd+0x50>
 8001c0a:	687b      	ldr	r3, [r7, #4]
 8001c0c:	681b      	ldr	r3, [r3, #0]
 8001c0e:	f043 0280 	orr.w	r2, r3, #128	; 0x80
 8001c12:	687b      	ldr	r3, [r7, #4]
 8001c14:	601a      	str	r2, [r3, #0]
 8001c16:	687b      	ldr	r3, [r7, #4]
 8001c18:	f8d3 3184 	ldr.w	r3, [r3, #388]	; 0x184
 8001c1c:	f443 7280 	orr.w	r2, r3, #256	; 0x100
 8001c20:	687b      	ldr	r3, [r7, #4]
 8001c22:	f8c3 2184 	str.w	r2, [r3, #388]	; 0x184
 8001c26:	687b      	ldr	r3, [r7, #4]
 8001c28:	f8d3 3194 	ldr.w	r3, [r3, #404]	; 0x194
 8001c2c:	f443 7280 	orr.w	r2, r3, #256	; 0x100
 8001c30:	687b      	ldr	r3, [r7, #4]
 8001c32:	f8c3 2194 	str.w	r2, [r3, #404]	; 0x194
 8001c36:	687b      	ldr	r3, [r7, #4]
 8001c38:	f8d3 31a4 	ldr.w	r3, [r3, #420]	; 0x1a4
 8001c3c:	f443 7280 	orr.w	r2, r3, #256	; 0x100
 8001c40:	687b      	ldr	r3, [r7, #4]
 8001c42:	f8c3 21a4 	str.w	r2, [r3, #420]	; 0x1a4
 8001c46:	e01d      	b.n	8001c84 <CAN_TTComModeCmd+0x8c>
 8001c48:	687b      	ldr	r3, [r7, #4]
 8001c4a:	681b      	ldr	r3, [r3, #0]
 8001c4c:	f023 0280 	bic.w	r2, r3, #128	; 0x80
 8001c50:	687b      	ldr	r3, [r7, #4]
 8001c52:	601a      	str	r2, [r3, #0]
 8001c54:	687b      	ldr	r3, [r7, #4]
 8001c56:	f8d3 3184 	ldr.w	r3, [r3, #388]	; 0x184
 8001c5a:	f423 7280 	bic.w	r2, r3, #256	; 0x100
 8001c5e:	687b      	ldr	r3, [r7, #4]
 8001c60:	f8c3 2184 	str.w	r2, [r3, #388]	; 0x184
 8001c64:	687b      	ldr	r3, [r7, #4]
 8001c66:	f8d3 3194 	ldr.w	r3, [r3, #404]	; 0x194
 8001c6a:	f423 7280 	bic.w	r2, r3, #256	; 0x100
 8001c6e:	687b      	ldr	r3, [r7, #4]
 8001c70:	f8c3 2194 	str.w	r2, [r3, #404]	; 0x194
 8001c74:	687b      	ldr	r3, [r7, #4]
 8001c76:	f8d3 31a4 	ldr.w	r3, [r3, #420]	; 0x1a4
 8001c7a:	f423 7280 	bic.w	r2, r3, #256	; 0x100
 8001c7e:	687b      	ldr	r3, [r7, #4]
 8001c80:	f8c3 21a4 	str.w	r2, [r3, #420]	; 0x1a4
 8001c84:	bf00      	nop
 8001c86:	370c      	adds	r7, #12
 8001c88:	46bd      	mov	sp, r7
 8001c8a:	f85d 7b04 	ldr.w	r7, [sp], #4
 8001c8e:	4770      	bx	lr

08001c90 <CAN_Transmit>:
 8001c90:	b480      	push	{r7}
 8001c92:	b085      	sub	sp, #20
 8001c94:	af00      	add	r7, sp, #0
 8001c96:	6078      	str	r0, [r7, #4]
 8001c98:	6039      	str	r1, [r7, #0]
 8001c9a:	2300      	movs	r3, #0
 8001c9c:	73fb      	strb	r3, [r7, #15]
 8001c9e:	687b      	ldr	r3, [r7, #4]
 8001ca0:	689b      	ldr	r3, [r3, #8]
 8001ca2:	f003 6380 	and.w	r3, r3, #67108864	; 0x4000000
 8001ca6:	2b00      	cmp	r3, #0
 8001ca8:	d002      	beq.n	8001cb0 <CAN_Transmit+0x20>
 8001caa:	2300      	movs	r3, #0
 8001cac:	73fb      	strb	r3, [r7, #15]
 8001cae:	e013      	b.n	8001cd8 <CAN_Transmit+0x48>
 8001cb0:	687b      	ldr	r3, [r7, #4]
 8001cb2:	689b      	ldr	r3, [r3, #8]
 8001cb4:	f003 6300 	and.w	r3, r3, #134217728	; 0x8000000
 8001cb8:	2b00      	cmp	r3, #0
 8001cba:	d002      	beq.n	8001cc2 <CAN_Transmit+0x32>
 8001cbc:	2301      	movs	r3, #1
 8001cbe:	73fb      	strb	r3, [r7, #15]
 8001cc0:	e00a      	b.n	8001cd8 <CAN_Transmit+0x48>
 8001cc2:	687b      	ldr	r3, [r7, #4]
 8001cc4:	689b      	ldr	r3, [r3, #8]
 8001cc6:	f003 5380 	and.w	r3, r3, #268435456	; 0x10000000
 8001cca:	2b00      	cmp	r3, #0
 8001ccc:	d002      	beq.n	8001cd4 <CAN_Transmit+0x44>
 8001cce:	2302      	movs	r3, #2
 8001cd0:	73fb      	strb	r3, [r7, #15]
 8001cd2:	e001      	b.n	8001cd8 <CAN_Transmit+0x48>
 8001cd4:	2304      	movs	r3, #4
 8001cd6:	73fb      	strb	r3, [r7, #15]
 8001cd8:	7bfb      	ldrb	r3, [r7, #15]
 8001cda:	2b04      	cmp	r3, #4
 8001cdc:	f000 809c 	beq.w	8001e18 <CAN_Transmit+0x188>
 8001ce0:	7bfb      	ldrb	r3, [r7, #15]
 8001ce2:	7bfa      	ldrb	r2, [r7, #15]
 8001ce4:	6879      	ldr	r1, [r7, #4]
 8001ce6:	3218      	adds	r2, #24
 8001ce8:	0112      	lsls	r2, r2, #4
 8001cea:	440a      	add	r2, r1
 8001cec:	6812      	ldr	r2, [r2, #0]
 8001cee:	f002 0201 	and.w	r2, r2, #1
 8001cf2:	6879      	ldr	r1, [r7, #4]
 8001cf4:	3318      	adds	r3, #24
 8001cf6:	011b      	lsls	r3, r3, #4
 8001cf8:	440b      	add	r3, r1
 8001cfa:	601a      	str	r2, [r3, #0]
 8001cfc:	683b      	ldr	r3, [r7, #0]
 8001cfe:	7a1b      	ldrb	r3, [r3, #8]
 8001d00:	2b00      	cmp	r3, #0
 8001d02:	d113      	bne.n	8001d2c <CAN_Transmit+0x9c>
 8001d04:	7bfb      	ldrb	r3, [r7, #15]
 8001d06:	7bfa      	ldrb	r2, [r7, #15]
 8001d08:	6879      	ldr	r1, [r7, #4]
 8001d0a:	3218      	adds	r2, #24
 8001d0c:	0112      	lsls	r2, r2, #4
 8001d0e:	440a      	add	r2, r1
 8001d10:	6811      	ldr	r1, [r2, #0]
 8001d12:	683a      	ldr	r2, [r7, #0]
 8001d14:	6812      	ldr	r2, [r2, #0]
 8001d16:	0552      	lsls	r2, r2, #21
 8001d18:	6838      	ldr	r0, [r7, #0]
 8001d1a:	7a40      	ldrb	r0, [r0, #9]
 8001d1c:	4302      	orrs	r2, r0
 8001d1e:	430a      	orrs	r2, r1
 8001d20:	6879      	ldr	r1, [r7, #4]
 8001d22:	3318      	adds	r3, #24
 8001d24:	011b      	lsls	r3, r3, #4
 8001d26:	440b      	add	r3, r1
 8001d28:	601a      	str	r2, [r3, #0]
 8001d2a:	e015      	b.n	8001d58 <CAN_Transmit+0xc8>
 8001d2c:	7bfb      	ldrb	r3, [r7, #15]
 8001d2e:	7bfa      	ldrb	r2, [r7, #15]
 8001d30:	6879      	ldr	r1, [r7, #4]
 8001d32:	3218      	adds	r2, #24
 8001d34:	0112      	lsls	r2, r2, #4
 8001d36:	440a      	add	r2, r1
 8001d38:	6811      	ldr	r1, [r2, #0]
 8001d3a:	683a      	ldr	r2, [r7, #0]
 8001d3c:	6852      	ldr	r2, [r2, #4]
 8001d3e:	00d2      	lsls	r2, r2, #3
 8001d40:	6838      	ldr	r0, [r7, #0]
 8001d42:	7a00      	ldrb	r0, [r0, #8]
 8001d44:	4302      	orrs	r2, r0
 8001d46:	6838      	ldr	r0, [r7, #0]
 8001d48:	7a40      	ldrb	r0, [r0, #9]
 8001d4a:	4302      	orrs	r2, r0
 8001d4c:	430a      	orrs	r2, r1
 8001d4e:	6879      	ldr	r1, [r7, #4]
 8001d50:	3318      	adds	r3, #24
 8001d52:	011b      	lsls	r3, r3, #4
 8001d54:	440b      	add	r3, r1
 8001d56:	601a      	str	r2, [r3, #0]
 8001d58:	683b      	ldr	r3, [r7, #0]
 8001d5a:	7a9b      	ldrb	r3, [r3, #10]
 8001d5c:	f003 030f 	and.w	r3, r3, #15
 8001d60:	b2da      	uxtb	r2, r3
 8001d62:	683b      	ldr	r3, [r7, #0]
 8001d64:	729a      	strb	r2, [r3, #10]
 8001d66:	7bfb      	ldrb	r3, [r7, #15]
 8001d68:	7bfa      	ldrb	r2, [r7, #15]
 8001d6a:	6879      	ldr	r1, [r7, #4]
 8001d6c:	3218      	adds	r2, #24
 8001d6e:	0112      	lsls	r2, r2, #4
 8001d70:	440a      	add	r2, r1
 8001d72:	3204      	adds	r2, #4
 8001d74:	6812      	ldr	r2, [r2, #0]
 8001d76:	f022 020f 	bic.w	r2, r2, #15
 8001d7a:	6879      	ldr	r1, [r7, #4]
 8001d7c:	3318      	adds	r3, #24
 8001d7e:	011b      	lsls	r3, r3, #4
 8001d80:	440b      	add	r3, r1
 8001d82:	3304      	adds	r3, #4
 8001d84:	601a      	str	r2, [r3, #0]
 8001d86:	7bfb      	ldrb	r3, [r7, #15]
 8001d88:	7bfa      	ldrb	r2, [r7, #15]
 8001d8a:	6879      	ldr	r1, [r7, #4]
 8001d8c:	3218      	adds	r2, #24
 8001d8e:	0112      	lsls	r2, r2, #4
 8001d90:	440a      	add	r2, r1
 8001d92:	3204      	adds	r2, #4
 8001d94:	6812      	ldr	r2, [r2, #0]
 8001d96:	6839      	ldr	r1, [r7, #0]
 8001d98:	7a89      	ldrb	r1, [r1, #10]
 8001d9a:	430a      	orrs	r2, r1
 8001d9c:	6879      	ldr	r1, [r7, #4]
 8001d9e:	3318      	adds	r3, #24
 8001da0:	011b      	lsls	r3, r3, #4
 8001da2:	440b      	add	r3, r1
 8001da4:	3304      	adds	r3, #4
 8001da6:	601a      	str	r2, [r3, #0]
 8001da8:	7bfb      	ldrb	r3, [r7, #15]
 8001daa:	683a      	ldr	r2, [r7, #0]
 8001dac:	7b92      	ldrb	r2, [r2, #14]
 8001dae:	0611      	lsls	r1, r2, #24
 8001db0:	683a      	ldr	r2, [r7, #0]
 8001db2:	7b52      	ldrb	r2, [r2, #13]
 8001db4:	0412      	lsls	r2, r2, #16
 8001db6:	4311      	orrs	r1, r2
 8001db8:	683a      	ldr	r2, [r7, #0]
 8001dba:	7b12      	ldrb	r2, [r2, #12]
 8001dbc:	0212      	lsls	r2, r2, #8
 8001dbe:	430a      	orrs	r2, r1
 8001dc0:	6839      	ldr	r1, [r7, #0]
 8001dc2:	7ac9      	ldrb	r1, [r1, #11]
 8001dc4:	430a      	orrs	r2, r1
 8001dc6:	6879      	ldr	r1, [r7, #4]
 8001dc8:	011b      	lsls	r3, r3, #4
 8001dca:	440b      	add	r3, r1
 8001dcc:	f503 73c4 	add.w	r3, r3, #392	; 0x188
 8001dd0:	601a      	str	r2, [r3, #0]
 8001dd2:	7bfb      	ldrb	r3, [r7, #15]
 8001dd4:	683a      	ldr	r2, [r7, #0]
 8001dd6:	7c92      	ldrb	r2, [r2, #18]
 8001dd8:	0611      	lsls	r1, r2, #24
 8001dda:	683a      	ldr	r2, [r7, #0]
 8001ddc:	7c52      	ldrb	r2, [r2, #17]
 8001dde:	0412      	lsls	r2, r2, #16
 8001de0:	4311      	orrs	r1, r2
 8001de2:	683a      	ldr	r2, [r7, #0]
 8001de4:	7c12      	ldrb	r2, [r2, #16]
 8001de6:	0212      	lsls	r2, r2, #8
 8001de8:	430a      	orrs	r2, r1
 8001dea:	6839      	ldr	r1, [r7, #0]
 8001dec:	7bc9      	ldrb	r1, [r1, #15]
 8001dee:	430a      	orrs	r2, r1
 8001df0:	6879      	ldr	r1, [r7, #4]
 8001df2:	011b      	lsls	r3, r3, #4
 8001df4:	440b      	add	r3, r1
 8001df6:	f503 73c6 	add.w	r3, r3, #396	; 0x18c
 8001dfa:	601a      	str	r2, [r3, #0]
 8001dfc:	7bfb      	ldrb	r3, [r7, #15]
 8001dfe:	7bfa      	ldrb	r2, [r7, #15]
 8001e00:	6879      	ldr	r1, [r7, #4]
 8001e02:	3218      	adds	r2, #24
 8001e04:	0112      	lsls	r2, r2, #4
 8001e06:	440a      	add	r2, r1
 8001e08:	6812      	ldr	r2, [r2, #0]
 8001e0a:	f042 0201 	orr.w	r2, r2, #1
 8001e0e:	6879      	ldr	r1, [r7, #4]
 8001e10:	3318      	adds	r3, #24
 8001e12:	011b      	lsls	r3, r3, #4
 8001e14:	440b      	add	r3, r1
 8001e16:	601a      	str	r2, [r3, #0]
 8001e18:	7bfb      	ldrb	r3, [r7, #15]
 8001e1a:	4618      	mov	r0, r3
 8001e1c:	3714      	adds	r7, #20
 8001e1e:	46bd      	mov	sp, r7
 8001e20:	f85d 7b04 	ldr.w	r7, [sp], #4
 8001e24:	4770      	bx	lr
 8001e26:	bf00      	nop

08001e28 <CAN_TransmitStatus>:
 8001e28:	b480      	push	{r7}
 8001e2a:	b085      	sub	sp, #20
 8001e2c:	af00      	add	r7, sp, #0
 8001e2e:	6078      	str	r0, [r7, #4]
 8001e30:	460b      	mov	r3, r1
 8001e32:	70fb      	strb	r3, [r7, #3]
 8001e34:	2300      	movs	r3, #0
 8001e36:	60fb      	str	r3, [r7, #12]
 8001e38:	78fb      	ldrb	r3, [r7, #3]
 8001e3a:	2b01      	cmp	r3, #1
 8001e3c:	d009      	beq.n	8001e52 <CAN_TransmitStatus+0x2a>
 8001e3e:	2b02      	cmp	r3, #2
 8001e40:	d00d      	beq.n	8001e5e <CAN_TransmitStatus+0x36>
 8001e42:	2b00      	cmp	r3, #0
 8001e44:	d111      	bne.n	8001e6a <CAN_TransmitStatus+0x42>
 8001e46:	687b      	ldr	r3, [r7, #4]
 8001e48:	689a      	ldr	r2, [r3, #8]
 8001e4a:	4b26      	ldr	r3, [pc, #152]	; (8001ee4 <CAN_TransmitStatus+0xbc>)
 8001e4c:	4013      	ands	r3, r2
 8001e4e:	60fb      	str	r3, [r7, #12]
 8001e50:	e00e      	b.n	8001e70 <CAN_TransmitStatus+0x48>
 8001e52:	687b      	ldr	r3, [r7, #4]
 8001e54:	689a      	ldr	r2, [r3, #8]
 8001e56:	4b24      	ldr	r3, [pc, #144]	; (8001ee8 <CAN_TransmitStatus+0xc0>)
 8001e58:	4013      	ands	r3, r2
 8001e5a:	60fb      	str	r3, [r7, #12]
 8001e5c:	e008      	b.n	8001e70 <CAN_TransmitStatus+0x48>
 8001e5e:	687b      	ldr	r3, [r7, #4]
 8001e60:	689a      	ldr	r2, [r3, #8]
 8001e62:	4b22      	ldr	r3, [pc, #136]	; (8001eec <CAN_TransmitStatus+0xc4>)
 8001e64:	4013      	ands	r3, r2
 8001e66:	60fb      	str	r3, [r7, #12]
 8001e68:	e002      	b.n	8001e70 <CAN_TransmitStatus+0x48>
 8001e6a:	2300      	movs	r3, #0
 8001e6c:	60fb      	str	r3, [r7, #12]
 8001e6e:	bf00      	nop
 8001e70:	68fb      	ldr	r3, [r7, #12]
 8001e72:	4a1f      	ldr	r2, [pc, #124]	; (8001ef0 <CAN_TransmitStatus+0xc8>)
 8001e74:	4293      	cmp	r3, r2
 8001e76:	d01b      	beq.n	8001eb0 <CAN_TransmitStatus+0x88>
 8001e78:	4a1d      	ldr	r2, [pc, #116]	; (8001ef0 <CAN_TransmitStatus+0xc8>)
 8001e7a:	4293      	cmp	r3, r2
 8001e7c:	d808      	bhi.n	8001e90 <CAN_TransmitStatus+0x68>
 8001e7e:	4a1d      	ldr	r2, [pc, #116]	; (8001ef4 <CAN_TransmitStatus+0xcc>)
 8001e80:	4293      	cmp	r3, r2
 8001e82:	d012      	beq.n	8001eaa <CAN_TransmitStatus+0x82>
 8001e84:	4a17      	ldr	r2, [pc, #92]	; (8001ee4 <CAN_TransmitStatus+0xbc>)
 8001e86:	4293      	cmp	r3, r2
 8001e88:	d018      	beq.n	8001ebc <CAN_TransmitStatus+0x94>
 8001e8a:	2b00      	cmp	r3, #0
 8001e8c:	d00a      	beq.n	8001ea4 <CAN_TransmitStatus+0x7c>
 8001e8e:	e01e      	b.n	8001ece <CAN_TransmitStatus+0xa6>
 8001e90:	4a19      	ldr	r2, [pc, #100]	; (8001ef8 <CAN_TransmitStatus+0xd0>)
 8001e92:	4293      	cmp	r3, r2
 8001e94:	d00f      	beq.n	8001eb6 <CAN_TransmitStatus+0x8e>
 8001e96:	4a15      	ldr	r2, [pc, #84]	; (8001eec <CAN_TransmitStatus+0xc4>)
 8001e98:	4293      	cmp	r3, r2
 8001e9a:	d015      	beq.n	8001ec8 <CAN_TransmitStatus+0xa0>
 8001e9c:	4a12      	ldr	r2, [pc, #72]	; (8001ee8 <CAN_TransmitStatus+0xc0>)
 8001e9e:	4293      	cmp	r3, r2
 8001ea0:	d00f      	beq.n	8001ec2 <CAN_TransmitStatus+0x9a>
 8001ea2:	e014      	b.n	8001ece <CAN_TransmitStatus+0xa6>
 8001ea4:	2302      	movs	r3, #2
 8001ea6:	60fb      	str	r3, [r7, #12]
 8001ea8:	e014      	b.n	8001ed4 <CAN_TransmitStatus+0xac>
 8001eaa:	2300      	movs	r3, #0
 8001eac:	60fb      	str	r3, [r7, #12]
 8001eae:	e011      	b.n	8001ed4 <CAN_TransmitStatus+0xac>
 8001eb0:	2300      	movs	r3, #0
 8001eb2:	60fb      	str	r3, [r7, #12]
 8001eb4:	e00e      	b.n	8001ed4 <CAN_TransmitStatus+0xac>
 8001eb6:	2300      	movs	r3, #0
 8001eb8:	60fb      	str	r3, [r7, #12]
 8001eba:	e00b      	b.n	8001ed4 <CAN_TransmitStatus+0xac>
 8001ebc:	2301      	movs	r3, #1
 8001ebe:	60fb      	str	r3, [r7, #12]
 8001ec0:	e008      	b.n	8001ed4 <CAN_TransmitStatus+0xac>
 8001ec2:	2301      	movs	r3, #1
 8001ec4:	60fb      	str	r3, [r7, #12]
 8001ec6:	e005      	b.n	8001ed4 <CAN_TransmitStatus+0xac>
 8001ec8:	2301      	movs	r3, #1
 8001eca:	60fb      	str	r3, [r7, #12]
 8001ecc:	e002      	b.n	8001ed4 <CAN_TransmitStatus+0xac>
 8001ece:	2300      	movs	r3, #0
 8001ed0:	60fb      	str	r3, [r7, #12]
 8001ed2:	bf00      	nop
 8001ed4:	68fb      	ldr	r3, [r7, #12]
 8001ed6:	b2db      	uxtb	r3, r3
 8001ed8:	4618      	mov	r0, r3
 8001eda:	3714      	adds	r7, #20
 8001edc:	46bd      	mov	sp, r7
 8001ede:	f85d 7b04 	ldr.w	r7, [sp], #4
 8001ee2:	4770      	bx	lr
 8001ee4:	04000003 	streq	r0, [r0], #-3
 8001ee8:	08000300 	stmdaeq	r0, {r8, r9}
 8001eec:	10030000 	andne	r0, r3, r0
 8001ef0:	08000100 	stmdaeq	r0, {r8}
 8001ef4:	04000001 	streq	r0, [r0], #-1
 8001ef8:	10010000 	andne	r0, r1, r0

08001efc <CAN_CancelTransmit>:
 8001efc:	b480      	push	{r7}
 8001efe:	b083      	sub	sp, #12
 8001f00:	af00      	add	r7, sp, #0
 8001f02:	6078      	str	r0, [r7, #4]
 8001f04:	460b      	mov	r3, r1
 8001f06:	70fb      	strb	r3, [r7, #3]
 8001f08:	78fb      	ldrb	r3, [r7, #3]
 8001f0a:	2b01      	cmp	r3, #1
 8001f0c:	d00b      	beq.n	8001f26 <CAN_CancelTransmit+0x2a>
 8001f0e:	2b02      	cmp	r3, #2
 8001f10:	d010      	beq.n	8001f34 <CAN_CancelTransmit+0x38>
 8001f12:	2b00      	cmp	r3, #0
 8001f14:	d000      	beq.n	8001f18 <CAN_CancelTransmit+0x1c>
 8001f16:	e014      	b.n	8001f42 <CAN_CancelTransmit+0x46>
 8001f18:	687b      	ldr	r3, [r7, #4]
 8001f1a:	689b      	ldr	r3, [r3, #8]
 8001f1c:	f043 0280 	orr.w	r2, r3, #128	; 0x80
 8001f20:	687b      	ldr	r3, [r7, #4]
 8001f22:	609a      	str	r2, [r3, #8]
 8001f24:	e00d      	b.n	8001f42 <CAN_CancelTransmit+0x46>
 8001f26:	687b      	ldr	r3, [r7, #4]
 8001f28:	689b      	ldr	r3, [r3, #8]
 8001f2a:	f443 4200 	orr.w	r2, r3, #32768	; 0x8000
 8001f2e:	687b      	ldr	r3, [r7, #4]
 8001f30:	609a      	str	r2, [r3, #8]
 8001f32:	e006      	b.n	8001f42 <CAN_CancelTransmit+0x46>
 8001f34:	687b      	ldr	r3, [r7, #4]
 8001f36:	689b      	ldr	r3, [r3, #8]
 8001f38:	f443 0200 	orr.w	r2, r3, #8388608	; 0x800000
 8001f3c:	687b      	ldr	r3, [r7, #4]
 8001f3e:	609a      	str	r2, [r3, #8]
 8001f40:	bf00      	nop
 8001f42:	bf00      	nop
 8001f44:	370c      	adds	r7, #12
 8001f46:	46bd      	mov	sp, r7
 8001f48:	f85d 7b04 	ldr.w	r7, [sp], #4
 8001f4c:	4770      	bx	lr
 8001f4e:	bf00      	nop

08001f50 <CAN_Receive>:
 8001f50:	b480      	push	{r7}
 8001f52:	b085      	sub	sp, #20
 8001f54:	af00      	add	r7, sp, #0
 8001f56:	60f8      	str	r0, [r7, #12]
 8001f58:	460b      	mov	r3, r1
 8001f5a:	607a      	str	r2, [r7, #4]
 8001f5c:	72fb      	strb	r3, [r7, #11]
 8001f5e:	7afb      	ldrb	r3, [r7, #11]
 8001f60:	68fa      	ldr	r2, [r7, #12]
 8001f62:	331b      	adds	r3, #27
 8001f64:	011b      	lsls	r3, r3, #4
 8001f66:	4413      	add	r3, r2
 8001f68:	681b      	ldr	r3, [r3, #0]
 8001f6a:	b2db      	uxtb	r3, r3
 8001f6c:	f003 0304 	and.w	r3, r3, #4
 8001f70:	b2da      	uxtb	r2, r3
 8001f72:	687b      	ldr	r3, [r7, #4]
 8001f74:	721a      	strb	r2, [r3, #8]
 8001f76:	687b      	ldr	r3, [r7, #4]
 8001f78:	7a1b      	ldrb	r3, [r3, #8]
 8001f7a:	2b00      	cmp	r3, #0
 8001f7c:	d109      	bne.n	8001f92 <CAN_Receive+0x42>
 8001f7e:	7afb      	ldrb	r3, [r7, #11]
 8001f80:	68fa      	ldr	r2, [r7, #12]
 8001f82:	331b      	adds	r3, #27
 8001f84:	011b      	lsls	r3, r3, #4
 8001f86:	4413      	add	r3, r2
 8001f88:	681b      	ldr	r3, [r3, #0]
 8001f8a:	0d5a      	lsrs	r2, r3, #21
 8001f8c:	687b      	ldr	r3, [r7, #4]
 8001f8e:	601a      	str	r2, [r3, #0]
 8001f90:	e008      	b.n	8001fa4 <CAN_Receive+0x54>
 8001f92:	7afb      	ldrb	r3, [r7, #11]
 8001f94:	68fa      	ldr	r2, [r7, #12]
 8001f96:	331b      	adds	r3, #27
 8001f98:	011b      	lsls	r3, r3, #4
 8001f9a:	4413      	add	r3, r2
 8001f9c:	681b      	ldr	r3, [r3, #0]
 8001f9e:	08da      	lsrs	r2, r3, #3
 8001fa0:	687b      	ldr	r3, [r7, #4]
 8001fa2:	605a      	str	r2, [r3, #4]
 8001fa4:	7afb      	ldrb	r3, [r7, #11]
 8001fa6:	68fa      	ldr	r2, [r7, #12]
 8001fa8:	331b      	adds	r3, #27
 8001faa:	011b      	lsls	r3, r3, #4
 8001fac:	4413      	add	r3, r2
 8001fae:	681b      	ldr	r3, [r3, #0]
 8001fb0:	b2db      	uxtb	r3, r3
 8001fb2:	f003 0302 	and.w	r3, r3, #2
 8001fb6:	b2da      	uxtb	r2, r3
 8001fb8:	687b      	ldr	r3, [r7, #4]
 8001fba:	725a      	strb	r2, [r3, #9]
 8001fbc:	7afb      	ldrb	r3, [r7, #11]
 8001fbe:	68fa      	ldr	r2, [r7, #12]
 8001fc0:	331b      	adds	r3, #27
 8001fc2:	011b      	lsls	r3, r3, #4
 8001fc4:	4413      	add	r3, r2
 8001fc6:	3304      	adds	r3, #4
 8001fc8:	681b      	ldr	r3, [r3, #0]
 8001fca:	b2db      	uxtb	r3, r3
 8001fcc:	f003 030f 	and.w	r3, r3, #15
 8001fd0:	b2da      	uxtb	r2, r3
 8001fd2:	687b      	ldr	r3, [r7, #4]
 8001fd4:	729a      	strb	r2, [r3, #10]
 8001fd6:	7afb      	ldrb	r3, [r7, #11]
 8001fd8:	68fa      	ldr	r2, [r7, #12]
 8001fda:	331b      	adds	r3, #27
 8001fdc:	011b      	lsls	r3, r3, #4
 8001fde:	4413      	add	r3, r2
 8001fe0:	3304      	adds	r3, #4
 8001fe2:	681b      	ldr	r3, [r3, #0]
 8001fe4:	0a1b      	lsrs	r3, r3, #8
 8001fe6:	b2da      	uxtb	r2, r3
 8001fe8:	687b      	ldr	r3, [r7, #4]
 8001fea:	74da      	strb	r2, [r3, #19]
 8001fec:	7afb      	ldrb	r3, [r7, #11]
 8001fee:	68fa      	ldr	r2, [r7, #12]
 8001ff0:	011b      	lsls	r3, r3, #4
 8001ff2:	4413      	add	r3, r2
 8001ff4:	f503 73dc 	add.w	r3, r3, #440	; 0x1b8
 8001ff8:	681b      	ldr	r3, [r3, #0]
 8001ffa:	b2da      	uxtb	r2, r3
 8001ffc:	687b      	ldr	r3, [r7, #4]
 8001ffe:	72da      	strb	r2, [r3, #11]
 8002000:	7afb      	ldrb	r3, [r7, #11]
 8002002:	68fa      	ldr	r2, [r7, #12]
 8002004:	011b      	lsls	r3, r3, #4
 8002006:	4413      	add	r3, r2
 8002008:	f503 73dc 	add.w	r3, r3, #440	; 0x1b8
 800200c:	681b      	ldr	r3, [r3, #0]
 800200e:	0a1b      	lsrs	r3, r3, #8
 8002010:	b2da      	uxtb	r2, r3
 8002012:	687b      	ldr	r3, [r7, #4]
 8002014:	731a      	strb	r2, [r3, #12]
 8002016:	7afb      	ldrb	r3, [r7, #11]
 8002018:	68fa      	ldr	r2, [r7, #12]
 800201a:	011b      	lsls	r3, r3, #4
 800201c:	4413      	add	r3, r2
 800201e:	f503 73dc 	add.w	r3, r3, #440	; 0x1b8
 8002022:	681b      	ldr	r3, [r3, #0]
 8002024:	0c1b      	lsrs	r3, r3, #16
 8002026:	b2da      	uxtb	r2, r3
 8002028:	687b      	ldr	r3, [r7, #4]
 800202a:	735a      	strb	r2, [r3, #13]
 800202c:	7afb      	ldrb	r3, [r7, #11]
 800202e:	68fa      	ldr	r2, [r7, #12]
 8002030:	011b      	lsls	r3, r3, #4
 8002032:	4413      	add	r3, r2
 8002034:	f503 73dc 	add.w	r3, r3, #440	; 0x1b8
 8002038:	681b      	ldr	r3, [r3, #0]
 800203a:	0e1b      	lsrs	r3, r3, #24
 800203c:	b2da      	uxtb	r2, r3
 800203e:	687b      	ldr	r3, [r7, #4]
 8002040:	739a      	strb	r2, [r3, #14]
 8002042:	7afb      	ldrb	r3, [r7, #11]
 8002044:	68fa      	ldr	r2, [r7, #12]
 8002046:	011b      	lsls	r3, r3, #4
 8002048:	4413      	add	r3, r2
 800204a:	f503 73de 	add.w	r3, r3, #444	; 0x1bc
 800204e:	681b      	ldr	r3, [r3, #0]
 8002050:	b2da      	uxtb	r2, r3
 8002052:	687b      	ldr	r3, [r7, #4]
 8002054:	73da      	strb	r2, [r3, #15]
 8002056:	7afb      	ldrb	r3, [r7, #11]
 8002058:	68fa      	ldr	r2, [r7, #12]
 800205a:	011b      	lsls	r3, r3, #4
 800205c:	4413      	add	r3, r2
 800205e:	f503 73de 	add.w	r3, r3, #444	; 0x1bc
 8002062:	681b      	ldr	r3, [r3, #0]
 8002064:	0a1b      	lsrs	r3, r3, #8
 8002066:	b2da      	uxtb	r2, r3
 8002068:	687b      	ldr	r3, [r7, #4]
 800206a:	741a      	strb	r2, [r3, #16]
 800206c:	7afb      	ldrb	r3, [r7, #11]
 800206e:	68fa      	ldr	r2, [r7, #12]
 8002070:	011b      	lsls	r3, r3, #4
 8002072:	4413      	add	r3, r2
 8002074:	f503 73de 	add.w	r3, r3, #444	; 0x1bc
 8002078:	681b      	ldr	r3, [r3, #0]
 800207a:	0c1b      	lsrs	r3, r3, #16
 800207c:	b2da      	uxtb	r2, r3
 800207e:	687b      	ldr	r3, [r7, #4]
 8002080:	745a      	strb	r2, [r3, #17]
 8002082:	7afb      	ldrb	r3, [r7, #11]
 8002084:	68fa      	ldr	r2, [r7, #12]
 8002086:	011b      	lsls	r3, r3, #4
 8002088:	4413      	add	r3, r2
 800208a:	f503 73de 	add.w	r3, r3, #444	; 0x1bc
 800208e:	681b      	ldr	r3, [r3, #0]
 8002090:	0e1b      	lsrs	r3, r3, #24
 8002092:	b2da      	uxtb	r2, r3
 8002094:	687b      	ldr	r3, [r7, #4]
 8002096:	749a      	strb	r2, [r3, #18]
 8002098:	7afb      	ldrb	r3, [r7, #11]
 800209a:	2b00      	cmp	r3, #0
 800209c:	d106      	bne.n	80020ac <CAN_Receive+0x15c>
 800209e:	68fb      	ldr	r3, [r7, #12]
 80020a0:	68db      	ldr	r3, [r3, #12]
 80020a2:	f043 0220 	orr.w	r2, r3, #32
 80020a6:	68fb      	ldr	r3, [r7, #12]
 80020a8:	60da      	str	r2, [r3, #12]
 80020aa:	e005      	b.n	80020b8 <CAN_Receive+0x168>
 80020ac:	68fb      	ldr	r3, [r7, #12]
 80020ae:	691b      	ldr	r3, [r3, #16]
 80020b0:	f043 0220 	orr.w	r2, r3, #32
 80020b4:	68fb      	ldr	r3, [r7, #12]
 80020b6:	611a      	str	r2, [r3, #16]
 80020b8:	bf00      	nop
 80020ba:	3714      	adds	r7, #20
 80020bc:	46bd      	mov	sp, r7
 80020be:	f85d 7b04 	ldr.w	r7, [sp], #4
 80020c2:	4770      	bx	lr

080020c4 <CAN_FIFORelease>:
 80020c4:	b480      	push	{r7}
 80020c6:	b083      	sub	sp, #12
 80020c8:	af00      	add	r7, sp, #0
 80020ca:	6078      	str	r0, [r7, #4]
 80020cc:	460b      	mov	r3, r1
 80020ce:	70fb      	strb	r3, [r7, #3]
 80020d0:	78fb      	ldrb	r3, [r7, #3]
 80020d2:	2b00      	cmp	r3, #0
 80020d4:	d106      	bne.n	80020e4 <CAN_FIFORelease+0x20>
 80020d6:	687b      	ldr	r3, [r7, #4]
 80020d8:	68db      	ldr	r3, [r3, #12]
 80020da:	f043 0220 	orr.w	r2, r3, #32
 80020de:	687b      	ldr	r3, [r7, #4]
 80020e0:	60da      	str	r2, [r3, #12]
 80020e2:	e005      	b.n	80020f0 <CAN_FIFORelease+0x2c>
 80020e4:	687b      	ldr	r3, [r7, #4]
 80020e6:	691b      	ldr	r3, [r3, #16]
 80020e8:	f043 0220 	orr.w	r2, r3, #32
 80020ec:	687b      	ldr	r3, [r7, #4]
 80020ee:	611a      	str	r2, [r3, #16]
 80020f0:	bf00      	nop
 80020f2:	370c      	adds	r7, #12
 80020f4:	46bd      	mov	sp, r7
 80020f6:	f85d 7b04 	ldr.w	r7, [sp], #4
 80020fa:	4770      	bx	lr

080020fc <CAN_MessagePending>:
 80020fc:	b480      	push	{r7}
 80020fe:	b085      	sub	sp, #20
 8002100:	af00      	add	r7, sp, #0
 8002102:	6078      	str	r0, [r7, #4]
 8002104:	460b      	mov	r3, r1
 8002106:	70fb      	strb	r3, [r7, #3]
 8002108:	2300      	movs	r3, #0
 800210a:	73fb      	strb	r3, [r7, #15]
 800210c:	78fb      	ldrb	r3, [r7, #3]
 800210e:	2b00      	cmp	r3, #0
 8002110:	d106      	bne.n	8002120 <CAN_MessagePending+0x24>
 8002112:	687b      	ldr	r3, [r7, #4]
 8002114:	68db      	ldr	r3, [r3, #12]
 8002116:	b2db      	uxtb	r3, r3
 8002118:	f003 0303 	and.w	r3, r3, #3
 800211c:	73fb      	strb	r3, [r7, #15]
 800211e:	e00b      	b.n	8002138 <CAN_MessagePending+0x3c>
 8002120:	78fb      	ldrb	r3, [r7, #3]
 8002122:	2b01      	cmp	r3, #1
 8002124:	d106      	bne.n	8002134 <CAN_MessagePending+0x38>
 8002126:	687b      	ldr	r3, [r7, #4]
 8002128:	691b      	ldr	r3, [r3, #16]
 800212a:	b2db      	uxtb	r3, r3
 800212c:	f003 0303 	and.w	r3, r3, #3
 8002130:	73fb      	strb	r3, [r7, #15]
 8002132:	e001      	b.n	8002138 <CAN_MessagePending+0x3c>
 8002134:	2300      	movs	r3, #0
 8002136:	73fb      	strb	r3, [r7, #15]
 8002138:	7bfb      	ldrb	r3, [r7, #15]
 800213a:	4618      	mov	r0, r3
 800213c:	3714      	adds	r7, #20
 800213e:	46bd      	mov	sp, r7
 8002140:	f85d 7b04 	ldr.w	r7, [sp], #4
 8002144:	4770      	bx	lr
 8002146:	bf00      	nop

08002148 <CAN_OperatingModeRequest>:
 8002148:	b480      	push	{r7}
 800214a:	b085      	sub	sp, #20
 800214c:	af00      	add	r7, sp, #0
 800214e:	6078      	str	r0, [r7, #4]
 8002150:	460b      	mov	r3, r1
 8002152:	70fb      	strb	r3, [r7, #3]
 8002154:	2300      	movs	r3, #0
 8002156:	73fb      	strb	r3, [r7, #15]
 8002158:	f64f 73ff 	movw	r3, #65535	; 0xffff
 800215c:	60bb      	str	r3, [r7, #8]
 800215e:	78fb      	ldrb	r3, [r7, #3]
 8002160:	2b00      	cmp	r3, #0
 8002162:	d120      	bne.n	80021a6 <CAN_OperatingModeRequest+0x5e>
 8002164:	687b      	ldr	r3, [r7, #4]
 8002166:	681b      	ldr	r3, [r3, #0]
 8002168:	f023 0303 	bic.w	r3, r3, #3
 800216c:	f043 0201 	orr.w	r2, r3, #1
 8002170:	687b      	ldr	r3, [r7, #4]
 8002172:	601a      	str	r2, [r3, #0]
 8002174:	e002      	b.n	800217c <CAN_OperatingModeRequest+0x34>
 8002176:	68bb      	ldr	r3, [r7, #8]
 8002178:	3b01      	subs	r3, #1
 800217a:	60bb      	str	r3, [r7, #8]
 800217c:	687b      	ldr	r3, [r7, #4]
 800217e:	685b      	ldr	r3, [r3, #4]
 8002180:	f003 0303 	and.w	r3, r3, #3
 8002184:	2b01      	cmp	r3, #1
 8002186:	d002      	beq.n	800218e <CAN_OperatingModeRequest+0x46>
 8002188:	68bb      	ldr	r3, [r7, #8]
 800218a:	2b00      	cmp	r3, #0
 800218c:	d1f3      	bne.n	8002176 <CAN_OperatingModeRequest+0x2e>
 800218e:	687b      	ldr	r3, [r7, #4]
 8002190:	685b      	ldr	r3, [r3, #4]
 8002192:	f003 0303 	and.w	r3, r3, #3
 8002196:	2b01      	cmp	r3, #1
 8002198:	d002      	beq.n	80021a0 <CAN_OperatingModeRequest+0x58>
 800219a:	2300      	movs	r3, #0
 800219c:	73fb      	strb	r3, [r7, #15]
 800219e:	e04a      	b.n	8002236 <CAN_OperatingModeRequest+0xee>
 80021a0:	2301      	movs	r3, #1
 80021a2:	73fb      	strb	r3, [r7, #15]
 80021a4:	e047      	b.n	8002236 <CAN_OperatingModeRequest+0xee>
 80021a6:	78fb      	ldrb	r3, [r7, #3]
 80021a8:	2b01      	cmp	r3, #1
 80021aa:	d11e      	bne.n	80021ea <CAN_OperatingModeRequest+0xa2>
 80021ac:	687b      	ldr	r3, [r7, #4]
 80021ae:	681b      	ldr	r3, [r3, #0]
 80021b0:	f023 0203 	bic.w	r2, r3, #3
 80021b4:	687b      	ldr	r3, [r7, #4]
 80021b6:	601a      	str	r2, [r3, #0]
 80021b8:	e002      	b.n	80021c0 <CAN_OperatingModeRequest+0x78>
 80021ba:	68bb      	ldr	r3, [r7, #8]
 80021bc:	3b01      	subs	r3, #1
 80021be:	60bb      	str	r3, [r7, #8]
 80021c0:	687b      	ldr	r3, [r7, #4]
 80021c2:	685b      	ldr	r3, [r3, #4]
 80021c4:	f003 0303 	and.w	r3, r3, #3
 80021c8:	2b00      	cmp	r3, #0
 80021ca:	d002      	beq.n	80021d2 <CAN_OperatingModeRequest+0x8a>
 80021cc:	68bb      	ldr	r3, [r7, #8]
 80021ce:	2b00      	cmp	r3, #0
 80021d0:	d1f3      	bne.n	80021ba <CAN_OperatingModeRequest+0x72>
 80021d2:	687b      	ldr	r3, [r7, #4]
 80021d4:	685b      	ldr	r3, [r3, #4]
 80021d6:	f003 0303 	and.w	r3, r3, #3
 80021da:	2b00      	cmp	r3, #0
 80021dc:	d002      	beq.n	80021e4 <CAN_OperatingModeRequest+0x9c>
 80021de:	2300      	movs	r3, #0
 80021e0:	73fb      	strb	r3, [r7, #15]
 80021e2:	e028      	b.n	8002236 <CAN_OperatingModeRequest+0xee>
 80021e4:	2301      	movs	r3, #1
 80021e6:	73fb      	strb	r3, [r7, #15]
 80021e8:	e025      	b.n	8002236 <CAN_OperatingModeRequest+0xee>
 80021ea:	78fb      	ldrb	r3, [r7, #3]
 80021ec:	2b02      	cmp	r3, #2
 80021ee:	d120      	bne.n	8002232 <CAN_OperatingModeRequest+0xea>
 80021f0:	687b      	ldr	r3, [r7, #4]
 80021f2:	681b      	ldr	r3, [r3, #0]
 80021f4:	f023 0303 	bic.w	r3, r3, #3
 80021f8:	f043 0202 	orr.w	r2, r3, #2
 80021fc:	687b      	ldr	r3, [r7, #4]
 80021fe:	601a      	str	r2, [r3, #0]
 8002200:	e002      	b.n	8002208 <CAN_OperatingModeRequest+0xc0>
 8002202:	68bb      	ldr	r3, [r7, #8]
 8002204:	3b01      	subs	r3, #1
 8002206:	60bb      	str	r3, [r7, #8]
 8002208:	687b      	ldr	r3, [r7, #4]
 800220a:	685b      	ldr	r3, [r3, #4]
 800220c:	f003 0303 	and.w	r3, r3, #3
 8002210:	2b02      	cmp	r3, #2
 8002212:	d002      	beq.n	800221a <CAN_OperatingModeRequest+0xd2>
 8002214:	68bb      	ldr	r3, [r7, #8]
 8002216:	2b00      	cmp	r3, #0
 8002218:	d1f3      	bne.n	8002202 <CAN_OperatingModeRequest+0xba>
 800221a:	687b      	ldr	r3, [r7, #4]
 800221c:	685b      	ldr	r3, [r3, #4]
 800221e:	f003 0303 	and.w	r3, r3, #3
 8002222:	2b02      	cmp	r3, #2
 8002224:	d002      	beq.n	800222c <CAN_OperatingModeRequest+0xe4>
 8002226:	2300      	movs	r3, #0
 8002228:	73fb      	strb	r3, [r7, #15]
 800222a:	e004      	b.n	8002236 <CAN_OperatingModeRequest+0xee>
 800222c:	2301      	movs	r3, #1
 800222e:	73fb      	strb	r3, [r7, #15]
 8002230:	e001      	b.n	8002236 <CAN_OperatingModeRequest+0xee>
 8002232:	2300      	movs	r3, #0
 8002234:	73fb      	strb	r3, [r7, #15]
 8002236:	7bfb      	ldrb	r3, [r7, #15]
 8002238:	4618      	mov	r0, r3
 800223a:	3714      	adds	r7, #20
 800223c:	46bd      	mov	sp, r7
 800223e:	f85d 7b04 	ldr.w	r7, [sp], #4
 8002242:	4770      	bx	lr

08002244 <CAN_Sleep>:
 8002244:	b480      	push	{r7}
 8002246:	b085      	sub	sp, #20
 8002248:	af00      	add	r7, sp, #0
 800224a:	6078      	str	r0, [r7, #4]
 800224c:	2300      	movs	r3, #0
 800224e:	73fb      	strb	r3, [r7, #15]
 8002250:	687b      	ldr	r3, [r7, #4]
 8002252:	681b      	ldr	r3, [r3, #0]
 8002254:	f023 0303 	bic.w	r3, r3, #3
 8002258:	f043 0202 	orr.w	r2, r3, #2
 800225c:	687b      	ldr	r3, [r7, #4]
 800225e:	601a      	str	r2, [r3, #0]
 8002260:	687b      	ldr	r3, [r7, #4]
 8002262:	685b      	ldr	r3, [r3, #4]
 8002264:	f003 0303 	and.w	r3, r3, #3
 8002268:	2b02      	cmp	r3, #2
 800226a:	d101      	bne.n	8002270 <CAN_Sleep+0x2c>
 800226c:	2301      	movs	r3, #1
 800226e:	73fb      	strb	r3, [r7, #15]
 8002270:	7bfb      	ldrb	r3, [r7, #15]
 8002272:	4618      	mov	r0, r3
 8002274:	3714      	adds	r7, #20
 8002276:	46bd      	mov	sp, r7
 8002278:	f85d 7b04 	ldr.w	r7, [sp], #4
 800227c:	4770      	bx	lr
 800227e:	bf00      	nop

08002280 <CAN_WakeUp>:
 8002280:	b480      	push	{r7}
 8002282:	b085      	sub	sp, #20
 8002284:	af00      	add	r7, sp, #0
 8002286:	6078      	str	r0, [r7, #4]
 8002288:	f64f 73ff 	movw	r3, #65535	; 0xffff
 800228c:	60fb      	str	r3, [r7, #12]
 800228e:	2300      	movs	r3, #0
 8002290:	72fb      	strb	r3, [r7, #11]
 8002292:	687b      	ldr	r3, [r7, #4]
 8002294:	681b      	ldr	r3, [r3, #0]
 8002296:	f023 0202 	bic.w	r2, r3, #2
 800229a:	687b      	ldr	r3, [r7, #4]
 800229c:	601a      	str	r2, [r3, #0]
 800229e:	e002      	b.n	80022a6 <CAN_WakeUp+0x26>
 80022a0:	68fb      	ldr	r3, [r7, #12]
 80022a2:	3b01      	subs	r3, #1
 80022a4:	60fb      	str	r3, [r7, #12]
 80022a6:	687b      	ldr	r3, [r7, #4]
 80022a8:	685b      	ldr	r3, [r3, #4]
 80022aa:	f003 0302 	and.w	r3, r3, #2
 80022ae:	2b00      	cmp	r3, #0
 80022b0:	d002      	beq.n	80022b8 <CAN_WakeUp+0x38>
 80022b2:	68fb      	ldr	r3, [r7, #12]
 80022b4:	2b00      	cmp	r3, #0
 80022b6:	d1f3      	bne.n	80022a0 <CAN_WakeUp+0x20>
 80022b8:	687b      	ldr	r3, [r7, #4]
 80022ba:	685b      	ldr	r3, [r3, #4]
 80022bc:	f003 0302 	and.w	r3, r3, #2
 80022c0:	2b00      	cmp	r3, #0
 80022c2:	d101      	bne.n	80022c8 <CAN_WakeUp+0x48>
 80022c4:	2301      	movs	r3, #1
 80022c6:	72fb      	strb	r3, [r7, #11]
 80022c8:	7afb      	ldrb	r3, [r7, #11]
 80022ca:	4618      	mov	r0, r3
 80022cc:	3714      	adds	r7, #20
 80022ce:	46bd      	mov	sp, r7
 80022d0:	f85d 7b04 	ldr.w	r7, [sp], #4
 80022d4:	4770      	bx	lr
 80022d6:	bf00      	nop

080022d8 <CAN_GetLastErrorCode>:
 80022d8:	b480      	push	{r7}
 80022da:	b085      	sub	sp, #20
 80022dc:	af00      	add	r7, sp, #0
 80022de:	6078      	str	r0, [r7, #4]
 80022e0:	2300      	movs	r3, #0
 80022e2:	73fb      	strb	r3, [r7, #15]
 80022e4:	687b      	ldr	r3, [r7, #4]
 80022e6:	699b      	ldr	r3, [r3, #24]
 80022e8:	b2db      	uxtb	r3, r3
 80022ea:	f003 0370 	and.w	r3, r3, #112	; 0x70
 80022ee:	73fb      	strb	r3, [r7, #15]
 80022f0:	7bfb      	ldrb	r3, [r7, #15]
 80022f2:	4618      	mov	r0, r3
 80022f4:	3714      	adds	r7, #20
 80022f6:	46bd      	mov	sp, r7
 80022f8:	f85d 7b04 	ldr.w	r7, [sp], #4
 80022fc:	4770      	bx	lr
 80022fe:	bf00      	nop

08002300 <CAN_GetReceiveErrorCounter>:
 8002300:	b480      	push	{r7}
 8002302:	b085      	sub	sp, #20
 8002304:	af00      	add	r7, sp, #0
 8002306:	6078      	str	r0, [r7, #4]
 8002308:	2300      	movs	r3, #0
 800230a:	73fb      	strb	r3, [r7, #15]
 800230c:	687b      	ldr	r3, [r7, #4]
 800230e:	699b      	ldr	r3, [r3, #24]
 8002310:	f003 437f 	and.w	r3, r3, #4278190080	; 0xff000000
 8002314:	0e1b      	lsrs	r3, r3, #24
 8002316:	73fb      	strb	r3, [r7, #15]
 8002318:	7bfb      	ldrb	r3, [r7, #15]
 800231a:	4618      	mov	r0, r3
 800231c:	3714      	adds	r7, #20
 800231e:	46bd      	mov	sp, r7
 8002320:	f85d 7b04 	ldr.w	r7, [sp], #4
 8002324:	4770      	bx	lr
 8002326:	bf00      	nop

08002328 <CAN_GetLSBTransmitErrorCounter>:
 8002328:	b480      	push	{r7}
 800232a:	b085      	sub	sp, #20
 800232c:	af00      	add	r7, sp, #0
 800232e:	6078      	str	r0, [r7, #4]
 8002330:	2300      	movs	r3, #0
 8002332:	73fb      	strb	r3, [r7, #15]
 8002334:	687b      	ldr	r3, [r7, #4]
 8002336:	699b      	ldr	r3, [r3, #24]
 8002338:	f403 037f 	and.w	r3, r3, #16711680	; 0xff0000
 800233c:	0c1b      	lsrs	r3, r3, #16
 800233e:	73fb      	strb	r3, [r7, #15]
 8002340:	7bfb      	ldrb	r3, [r7, #15]
 8002342:	4618      	mov	r0, r3
 8002344:	3714      	adds	r7, #20
 8002346:	46bd      	mov	sp, r7
 8002348:	f85d 7b04 	ldr.w	r7, [sp], #4
 800234c:	4770      	bx	lr
 800234e:	bf00      	nop

08002350 <CAN_ITConfig>:
 8002350:	b480      	push	{r7}
 8002352:	b085      	sub	sp, #20
 8002354:	af00      	add	r7, sp, #0
 8002356:	60f8      	str	r0, [r7, #12]
 8002358:	60b9      	str	r1, [r7, #8]
 800235a:	4613      	mov	r3, r2
 800235c:	71fb      	strb	r3, [r7, #7]
 800235e:	79fb      	ldrb	r3, [r7, #7]
 8002360:	2b00      	cmp	r3, #0
 8002362:	d006      	beq.n	8002372 <CAN_ITConfig+0x22>
 8002364:	68fb      	ldr	r3, [r7, #12]
 8002366:	695a      	ldr	r2, [r3, #20]
 8002368:	68bb      	ldr	r3, [r7, #8]
 800236a:	431a      	orrs	r2, r3
 800236c:	68fb      	ldr	r3, [r7, #12]
 800236e:	615a      	str	r2, [r3, #20]
 8002370:	e006      	b.n	8002380 <CAN_ITConfig+0x30>
 8002372:	68fb      	ldr	r3, [r7, #12]
 8002374:	695a      	ldr	r2, [r3, #20]
 8002376:	68bb      	ldr	r3, [r7, #8]
 8002378:	43db      	mvns	r3, r3
 800237a:	401a      	ands	r2, r3
 800237c:	68fb      	ldr	r3, [r7, #12]
 800237e:	615a      	str	r2, [r3, #20]
 8002380:	bf00      	nop
 8002382:	3714      	adds	r7, #20
 8002384:	46bd      	mov	sp, r7
 8002386:	f85d 7b04 	ldr.w	r7, [sp], #4
 800238a:	4770      	bx	lr

0800238c <CAN_GetFlagStatus>:
 800238c:	b480      	push	{r7}
 800238e:	b085      	sub	sp, #20
 8002390:	af00      	add	r7, sp, #0
 8002392:	6078      	str	r0, [r7, #4]
 8002394:	6039      	str	r1, [r7, #0]
 8002396:	2300      	movs	r3, #0
 8002398:	73fb      	strb	r3, [r7, #15]
 800239a:	683b      	ldr	r3, [r7, #0]
 800239c:	f403 0370 	and.w	r3, r3, #15728640	; 0xf00000
 80023a0:	2b00      	cmp	r3, #0
 80023a2:	d00d      	beq.n	80023c0 <CAN_GetFlagStatus+0x34>
 80023a4:	687b      	ldr	r3, [r7, #4]
 80023a6:	699a      	ldr	r2, [r3, #24]
 80023a8:	683b      	ldr	r3, [r7, #0]
 80023aa:	4013      	ands	r3, r2
 80023ac:	f3c3 0313 	ubfx	r3, r3, #0, #20
 80023b0:	2b00      	cmp	r3, #0
 80023b2:	d002      	beq.n	80023ba <CAN_GetFlagStatus+0x2e>
 80023b4:	2301      	movs	r3, #1
 80023b6:	73fb      	strb	r3, [r7, #15]
 80023b8:	e048      	b.n	800244c <CAN_GetFlagStatus+0xc0>
 80023ba:	2300      	movs	r3, #0
 80023bc:	73fb      	strb	r3, [r7, #15]
 80023be:	e045      	b.n	800244c <CAN_GetFlagStatus+0xc0>
 80023c0:	683b      	ldr	r3, [r7, #0]
 80023c2:	f003 7380 	and.w	r3, r3, #16777216	; 0x1000000
 80023c6:	2b00      	cmp	r3, #0
 80023c8:	d00d      	beq.n	80023e6 <CAN_GetFlagStatus+0x5a>
 80023ca:	687b      	ldr	r3, [r7, #4]
 80023cc:	685a      	ldr	r2, [r3, #4]
 80023ce:	683b      	ldr	r3, [r7, #0]
 80023d0:	4013      	ands	r3, r2
 80023d2:	f3c3 0313 	ubfx	r3, r3, #0, #20
 80023d6:	2b00      	cmp	r3, #0
 80023d8:	d002      	beq.n	80023e0 <CAN_GetFlagStatus+0x54>
 80023da:	2301      	movs	r3, #1
 80023dc:	73fb      	strb	r3, [r7, #15]
 80023de:	e035      	b.n	800244c <CAN_GetFlagStatus+0xc0>
 80023e0:	2300      	movs	r3, #0
 80023e2:	73fb      	strb	r3, [r7, #15]
 80023e4:	e032      	b.n	800244c <CAN_GetFlagStatus+0xc0>
 80023e6:	683b      	ldr	r3, [r7, #0]
 80023e8:	f003 6300 	and.w	r3, r3, #134217728	; 0x8000000
 80023ec:	2b00      	cmp	r3, #0
 80023ee:	d00d      	beq.n	800240c <CAN_GetFlagStatus+0x80>
 80023f0:	687b      	ldr	r3, [r7, #4]
 80023f2:	689a      	ldr	r2, [r3, #8]
 80023f4:	683b      	ldr	r3, [r7, #0]
 80023f6:	4013      	ands	r3, r2
 80023f8:	f3c3 0313 	ubfx	r3, r3, #0, #20
 80023fc:	2b00      	cmp	r3, #0
 80023fe:	d002      	beq.n	8002406 <CAN_GetFlagStatus+0x7a>
 8002400:	2301      	movs	r3, #1
 8002402:	73fb      	strb	r3, [r7, #15]
 8002404:	e022      	b.n	800244c <CAN_GetFlagStatus+0xc0>
 8002406:	2300      	movs	r3, #0
 8002408:	73fb      	strb	r3, [r7, #15]
 800240a:	e01f      	b.n	800244c <CAN_GetFlagStatus+0xc0>
 800240c:	683b      	ldr	r3, [r7, #0]
 800240e:	f003 7300 	and.w	r3, r3, #33554432	; 0x2000000
 8002412:	2b00      	cmp	r3, #0
 8002414:	d00d      	beq.n	8002432 <CAN_GetFlagStatus+0xa6>
 8002416:	687b      	ldr	r3, [r7, #4]
 8002418:	68da      	ldr	r2, [r3, #12]
 800241a:	683b      	ldr	r3, [r7, #0]
 800241c:	4013      	ands	r3, r2
 800241e:	f3c3 0313 	ubfx	r3, r3, #0, #20
 8002422:	2b00      	cmp	r3, #0
 8002424:	d002      	beq.n	800242c <CAN_GetFlagStatus+0xa0>
 8002426:	2301      	movs	r3, #1
 8002428:	73fb      	strb	r3, [r7, #15]
 800242a:	e00f      	b.n	800244c <CAN_GetFlagStatus+0xc0>
 800242c:	2300      	movs	r3, #0
 800242e:	73fb      	strb	r3, [r7, #15]
 8002430:	e00c      	b.n	800244c <CAN_GetFlagStatus+0xc0>
 8002432:	687b      	ldr	r3, [r7, #4]
 8002434:	691a      	ldr	r2, [r3, #16]
 8002436:	683b      	ldr	r3, [r7, #0]
 8002438:	4013      	ands	r3, r2
 800243a:	f3c3 0313 	ubfx	r3, r3, #0, #20
 800243e:	2b00      	cmp	r3, #0
 8002440:	d002      	beq.n	8002448 <CAN_GetFlagStatus+0xbc>
 8002442:	2301      	movs	r3, #1
 8002444:	73fb      	strb	r3, [r7, #15]
 8002446:	e001      	b.n	800244c <CAN_GetFlagStatus+0xc0>
 8002448:	2300      	movs	r3, #0
 800244a:	73fb      	strb	r3, [r7, #15]
 800244c:	7bfb      	ldrb	r3, [r7, #15]
 800244e:	4618      	mov	r0, r3
 8002450:	3714      	adds	r7, #20
 8002452:	46bd      	mov	sp, r7
 8002454:	f85d 7b04 	ldr.w	r7, [sp], #4
 8002458:	4770      	bx	lr
 800245a:	bf00      	nop

0800245c <CAN_ClearFlag>:
 800245c:	b480      	push	{r7}
 800245e:	b085      	sub	sp, #20
 8002460:	af00      	add	r7, sp, #0
 8002462:	6078      	str	r0, [r7, #4]
 8002464:	6039      	str	r1, [r7, #0]
 8002466:	2300      	movs	r3, #0
 8002468:	60fb      	str	r3, [r7, #12]
 800246a:	683b      	ldr	r3, [r7, #0]
 800246c:	4a17      	ldr	r2, [pc, #92]	; (80024cc <CAN_ClearFlag+0x70>)
 800246e:	4293      	cmp	r3, r2
 8002470:	d103      	bne.n	800247a <CAN_ClearFlag+0x1e>
 8002472:	687b      	ldr	r3, [r7, #4]
 8002474:	2200      	movs	r2, #0
 8002476:	619a      	str	r2, [r3, #24]
 8002478:	e021      	b.n	80024be <CAN_ClearFlag+0x62>
 800247a:	683b      	ldr	r3, [r7, #0]
 800247c:	f3c3 0313 	ubfx	r3, r3, #0, #20
 8002480:	60fb      	str	r3, [r7, #12]
 8002482:	683b      	ldr	r3, [r7, #0]
 8002484:	f003 7300 	and.w	r3, r3, #33554432	; 0x2000000
 8002488:	2b00      	cmp	r3, #0
 800248a:	d003      	beq.n	8002494 <CAN_ClearFlag+0x38>
 800248c:	687b      	ldr	r3, [r7, #4]
 800248e:	68fa      	ldr	r2, [r7, #12]
 8002490:	60da      	str	r2, [r3, #12]
 8002492:	e014      	b.n	80024be <CAN_ClearFlag+0x62>
 8002494:	683b      	ldr	r3, [r7, #0]
 8002496:	f003 6380 	and.w	r3, r3, #67108864	; 0x4000000
 800249a:	2b00      	cmp	r3, #0
 800249c:	d003      	beq.n	80024a6 <CAN_ClearFlag+0x4a>
 800249e:	687b      	ldr	r3, [r7, #4]
 80024a0:	68fa      	ldr	r2, [r7, #12]
 80024a2:	611a      	str	r2, [r3, #16]
 80024a4:	e00b      	b.n	80024be <CAN_ClearFlag+0x62>
 80024a6:	683b      	ldr	r3, [r7, #0]
 80024a8:	f003 6300 	and.w	r3, r3, #134217728	; 0x8000000
 80024ac:	2b00      	cmp	r3, #0
 80024ae:	d003      	beq.n	80024b8 <CAN_ClearFlag+0x5c>
 80024b0:	687b      	ldr	r3, [r7, #4]
 80024b2:	68fa      	ldr	r2, [r7, #12]
 80024b4:	609a      	str	r2, [r3, #8]
 80024b6:	e002      	b.n	80024be <CAN_ClearFlag+0x62>
 80024b8:	687b      	ldr	r3, [r7, #4]
 80024ba:	68fa      	ldr	r2, [r7, #12]
 80024bc:	605a      	str	r2, [r3, #4]
 80024be:	bf00      	nop
 80024c0:	3714      	adds	r7, #20
 80024c2:	46bd      	mov	sp, r7
 80024c4:	f85d 7b04 	ldr.w	r7, [sp], #4
 80024c8:	4770      	bx	lr
 80024ca:	bf00      	nop
 80024cc:	30f00070 	rscscc	r0, r0, r0, ror r0

080024d0 <CAN_GetITStatus>:
 80024d0:	b580      	push	{r7, lr}
 80024d2:	b084      	sub	sp, #16
 80024d4:	af00      	add	r7, sp, #0
 80024d6:	6078      	str	r0, [r7, #4]
 80024d8:	6039      	str	r1, [r7, #0]
 80024da:	2300      	movs	r3, #0
 80024dc:	73fb      	strb	r3, [r7, #15]
 80024de:	687b      	ldr	r3, [r7, #4]
 80024e0:	695a      	ldr	r2, [r3, #20]
 80024e2:	683b      	ldr	r3, [r7, #0]
 80024e4:	4013      	ands	r3, r2
 80024e6:	2b00      	cmp	r3, #0
 80024e8:	f000 80b2 	beq.w	8002650 <CAN_GetITStatus+0x180>
 80024ec:	683b      	ldr	r3, [r7, #0]
 80024ee:	2b40      	cmp	r3, #64	; 0x40
 80024f0:	d062      	beq.n	80025b8 <CAN_GetITStatus+0xe8>
 80024f2:	2b40      	cmp	r3, #64	; 0x40
 80024f4:	d80f      	bhi.n	8002516 <CAN_GetITStatus+0x46>
 80024f6:	2b04      	cmp	r3, #4
 80024f8:	d03a      	beq.n	8002570 <CAN_GetITStatus+0xa0>
 80024fa:	2b04      	cmp	r3, #4
 80024fc:	d804      	bhi.n	8002508 <CAN_GetITStatus+0x38>
 80024fe:	2b01      	cmp	r3, #1
 8002500:	d024      	beq.n	800254c <CAN_GetITStatus+0x7c>
 8002502:	2b02      	cmp	r3, #2
 8002504:	d02b      	beq.n	800255e <CAN_GetITStatus+0x8e>
 8002506:	e09f      	b.n	8002648 <CAN_GetITStatus+0x178>
 8002508:	2b10      	cmp	r3, #16
 800250a:	d043      	beq.n	8002594 <CAN_GetITStatus+0xc4>
 800250c:	2b20      	cmp	r3, #32
 800250e:	d04a      	beq.n	80025a6 <CAN_GetITStatus+0xd6>
 8002510:	2b08      	cmp	r3, #8
 8002512:	d036      	beq.n	8002582 <CAN_GetITStatus+0xb2>
 8002514:	e098      	b.n	8002648 <CAN_GetITStatus+0x178>
 8002516:	f5b3 6f00 	cmp.w	r3, #2048	; 0x800
 800251a:	f000 8083 	beq.w	8002624 <CAN_GetITStatus+0x154>
 800251e:	f5b3 6f00 	cmp.w	r3, #2048	; 0x800
 8002522:	d809      	bhi.n	8002538 <CAN_GetITStatus+0x68>
 8002524:	f5b3 7f00 	cmp.w	r3, #512	; 0x200
 8002528:	d06a      	beq.n	8002600 <CAN_GetITStatus+0x130>
 800252a:	f5b3 6f80 	cmp.w	r3, #1024	; 0x400
 800252e:	d070      	beq.n	8002612 <CAN_GetITStatus+0x142>
 8002530:	f5b3 7f80 	cmp.w	r3, #256	; 0x100
 8002534:	d05b      	beq.n	80025ee <CAN_GetITStatus+0x11e>
 8002536:	e087      	b.n	8002648 <CAN_GetITStatus+0x178>
 8002538:	f5b3 3f80 	cmp.w	r3, #65536	; 0x10000
 800253c:	d045      	beq.n	80025ca <CAN_GetITStatus+0xfa>
 800253e:	f5b3 3f00 	cmp.w	r3, #131072	; 0x20000
 8002542:	d04b      	beq.n	80025dc <CAN_GetITStatus+0x10c>
 8002544:	f5b3 4f00 	cmp.w	r3, #32768	; 0x8000
 8002548:	d075      	beq.n	8002636 <CAN_GetITStatus+0x166>
 800254a:	e07d      	b.n	8002648 <CAN_GetITStatus+0x178>
 800254c:	687b      	ldr	r3, [r7, #4]
 800254e:	689b      	ldr	r3, [r3, #8]
 8002550:	4943      	ldr	r1, [pc, #268]	; (8002660 <CAN_GetITStatus+0x190>)
 8002552:	4618      	mov	r0, r3
 8002554:	f000 f8f6 	bl	8002744 <CheckITStatus>
 8002558:	4603      	mov	r3, r0
 800255a:	73fb      	strb	r3, [r7, #15]
 800255c:	e07a      	b.n	8002654 <CAN_GetITStatus+0x184>
 800255e:	687b      	ldr	r3, [r7, #4]
 8002560:	68db      	ldr	r3, [r3, #12]
 8002562:	2103      	movs	r1, #3
 8002564:	4618      	mov	r0, r3
 8002566:	f000 f8ed 	bl	8002744 <CheckITStatus>
 800256a:	4603      	mov	r3, r0
 800256c:	73fb      	strb	r3, [r7, #15]
 800256e:	e071      	b.n	8002654 <CAN_GetITStatus+0x184>
 8002570:	687b      	ldr	r3, [r7, #4]
 8002572:	68db      	ldr	r3, [r3, #12]
 8002574:	2108      	movs	r1, #8
 8002576:	4618      	mov	r0, r3
 8002578:	f000 f8e4 	bl	8002744 <CheckITStatus>
 800257c:	4603      	mov	r3, r0
 800257e:	73fb      	strb	r3, [r7, #15]
 8002580:	e068      	b.n	8002654 <CAN_GetITStatus+0x184>
 8002582:	687b      	ldr	r3, [r7, #4]
 8002584:	68db      	ldr	r3, [r3, #12]
 8002586:	2110      	movs	r1, #16
 8002588:	4618      	mov	r0, r3
 800258a:	f000 f8db 	bl	8002744 <CheckITStatus>
 800258e:	4603      	mov	r3, r0
 8002590:	73fb      	strb	r3, [r7, #15]
 8002592:	e05f      	b.n	8002654 <CAN_GetITStatus+0x184>
 8002594:	687b      	ldr	r3, [r7, #4]
 8002596:	691b      	ldr	r3, [r3, #16]
 8002598:	2103      	movs	r1, #3
 800259a:	4618      	mov	r0, r3
 800259c:	f000 f8d2 	bl	8002744 <CheckITStatus>
 80025a0:	4603      	mov	r3, r0
 80025a2:	73fb      	strb	r3, [r7, #15]
 80025a4:	e056      	b.n	8002654 <CAN_GetITStatus+0x184>
 80025a6:	687b      	ldr	r3, [r7, #4]
 80025a8:	691b      	ldr	r3, [r3, #16]
 80025aa:	2108      	movs	r1, #8
 80025ac:	4618      	mov	r0, r3
 80025ae:	f000 f8c9 	bl	8002744 <CheckITStatus>
 80025b2:	4603      	mov	r3, r0
 80025b4:	73fb      	strb	r3, [r7, #15]
 80025b6:	e04d      	b.n	8002654 <CAN_GetITStatus+0x184>
 80025b8:	687b      	ldr	r3, [r7, #4]
 80025ba:	691b      	ldr	r3, [r3, #16]
 80025bc:	2110      	movs	r1, #16
 80025be:	4618      	mov	r0, r3
 80025c0:	f000 f8c0 	bl	8002744 <CheckITStatus>
 80025c4:	4603      	mov	r3, r0
 80025c6:	73fb      	strb	r3, [r7, #15]
 80025c8:	e044      	b.n	8002654 <CAN_GetITStatus+0x184>
 80025ca:	687b      	ldr	r3, [r7, #4]
 80025cc:	685b      	ldr	r3, [r3, #4]
 80025ce:	2108      	movs	r1, #8
 80025d0:	4618      	mov	r0, r3
 80025d2:	f000 f8b7 	bl	8002744 <CheckITStatus>
 80025d6:	4603      	mov	r3, r0
 80025d8:	73fb      	strb	r3, [r7, #15]
 80025da:	e03b      	b.n	8002654 <CAN_GetITStatus+0x184>
 80025dc:	687b      	ldr	r3, [r7, #4]
 80025de:	685b      	ldr	r3, [r3, #4]
 80025e0:	2110      	movs	r1, #16
 80025e2:	4618      	mov	r0, r3
 80025e4:	f000 f8ae 	bl	8002744 <CheckITStatus>
 80025e8:	4603      	mov	r3, r0
 80025ea:	73fb      	strb	r3, [r7, #15]
 80025ec:	e032      	b.n	8002654 <CAN_GetITStatus+0x184>
 80025ee:	687b      	ldr	r3, [r7, #4]
 80025f0:	699b      	ldr	r3, [r3, #24]
 80025f2:	2101      	movs	r1, #1
 80025f4:	4618      	mov	r0, r3
 80025f6:	f000 f8a5 	bl	8002744 <CheckITStatus>
 80025fa:	4603      	mov	r3, r0
 80025fc:	73fb      	strb	r3, [r7, #15]
 80025fe:	e029      	b.n	8002654 <CAN_GetITStatus+0x184>
 8002600:	687b      	ldr	r3, [r7, #4]
 8002602:	699b      	ldr	r3, [r3, #24]
 8002604:	2102      	movs	r1, #2
 8002606:	4618      	mov	r0, r3
 8002608:	f000 f89c 	bl	8002744 <CheckITStatus>
 800260c:	4603      	mov	r3, r0
 800260e:	73fb      	strb	r3, [r7, #15]
 8002610:	e020      	b.n	8002654 <CAN_GetITStatus+0x184>
 8002612:	687b      	ldr	r3, [r7, #4]
 8002614:	699b      	ldr	r3, [r3, #24]
 8002616:	2104      	movs	r1, #4
 8002618:	4618      	mov	r0, r3
 800261a:	f000 f893 	bl	8002744 <CheckITStatus>
 800261e:	4603      	mov	r3, r0
 8002620:	73fb      	strb	r3, [r7, #15]
 8002622:	e017      	b.n	8002654 <CAN_GetITStatus+0x184>
 8002624:	687b      	ldr	r3, [r7, #4]
 8002626:	699b      	ldr	r3, [r3, #24]
 8002628:	2170      	movs	r1, #112	; 0x70
 800262a:	4618      	mov	r0, r3
 800262c:	f000 f88a 	bl	8002744 <CheckITStatus>
 8002630:	4603      	mov	r3, r0
 8002632:	73fb      	strb	r3, [r7, #15]
 8002634:	e00e      	b.n	8002654 <CAN_GetITStatus+0x184>
 8002636:	687b      	ldr	r3, [r7, #4]
 8002638:	685b      	ldr	r3, [r3, #4]
 800263a:	2104      	movs	r1, #4
 800263c:	4618      	mov	r0, r3
 800263e:	f000 f881 	bl	8002744 <CheckITStatus>
 8002642:	4603      	mov	r3, r0
 8002644:	73fb      	strb	r3, [r7, #15]
 8002646:	e005      	b.n	8002654 <CAN_GetITStatus+0x184>
 8002648:	2300      	movs	r3, #0
 800264a:	73fb      	strb	r3, [r7, #15]
 800264c:	bf00      	nop
 800264e:	e001      	b.n	8002654 <CAN_GetITStatus+0x184>
 8002650:	2300      	movs	r3, #0
 8002652:	73fb      	strb	r3, [r7, #15]
 8002654:	7bfb      	ldrb	r3, [r7, #15]
 8002656:	4618      	mov	r0, r3
 8002658:	3710      	adds	r7, #16
 800265a:	46bd      	mov	sp, r7
 800265c:	bd80      	pop	{r7, pc}
 800265e:	bf00      	nop
 8002660:	00010101 	andeq	r0, r1, r1, lsl #2

08002664 <CAN_ClearITPendingBit>:
 8002664:	b480      	push	{r7}
 8002666:	b083      	sub	sp, #12
 8002668:	af00      	add	r7, sp, #0
 800266a:	6078      	str	r0, [r7, #4]
 800266c:	6039      	str	r1, [r7, #0]
 800266e:	683b      	ldr	r3, [r7, #0]
 8002670:	f5b3 7f80 	cmp.w	r3, #256	; 0x100
 8002674:	d043      	beq.n	80026fe <CAN_ClearITPendingBit+0x9a>
 8002676:	f5b3 7f80 	cmp.w	r3, #256	; 0x100
 800267a:	d80d      	bhi.n	8002698 <CAN_ClearITPendingBit+0x34>
 800267c:	2b08      	cmp	r3, #8
 800267e:	d02a      	beq.n	80026d6 <CAN_ClearITPendingBit+0x72>
 8002680:	2b08      	cmp	r3, #8
 8002682:	d804      	bhi.n	800268e <CAN_ClearITPendingBit+0x2a>
 8002684:	2b01      	cmp	r3, #1
 8002686:	d01e      	beq.n	80026c6 <CAN_ClearITPendingBit+0x62>
 8002688:	2b04      	cmp	r3, #4
 800268a:	d020      	beq.n	80026ce <CAN_ClearITPendingBit+0x6a>
 800268c:	e051      	b.n	8002732 <CAN_ClearITPendingBit+0xce>
 800268e:	2b20      	cmp	r3, #32
 8002690:	d025      	beq.n	80026de <CAN_ClearITPendingBit+0x7a>
 8002692:	2b40      	cmp	r3, #64	; 0x40
 8002694:	d027      	beq.n	80026e6 <CAN_ClearITPendingBit+0x82>
 8002696:	e04c      	b.n	8002732 <CAN_ClearITPendingBit+0xce>
 8002698:	f5b3 6f00 	cmp.w	r3, #2048	; 0x800
 800269c:	d03b      	beq.n	8002716 <CAN_ClearITPendingBit+0xb2>
 800269e:	f5b3 6f00 	cmp.w	r3, #2048	; 0x800
 80026a2:	d806      	bhi.n	80026b2 <CAN_ClearITPendingBit+0x4e>
 80026a4:	f5b3 7f00 	cmp.w	r3, #512	; 0x200
 80026a8:	d02d      	beq.n	8002706 <CAN_ClearITPendingBit+0xa2>
 80026aa:	f5b3 6f80 	cmp.w	r3, #1024	; 0x400
 80026ae:	d02e      	beq.n	800270e <CAN_ClearITPendingBit+0xaa>
 80026b0:	e03f      	b.n	8002732 <CAN_ClearITPendingBit+0xce>
 80026b2:	f5b3 3f80 	cmp.w	r3, #65536	; 0x10000
 80026b6:	d01a      	beq.n	80026ee <CAN_ClearITPendingBit+0x8a>
 80026b8:	f5b3 3f00 	cmp.w	r3, #131072	; 0x20000
 80026bc:	d01b      	beq.n	80026f6 <CAN_ClearITPendingBit+0x92>
 80026be:	f5b3 4f00 	cmp.w	r3, #32768	; 0x8000
 80026c2:	d02f      	beq.n	8002724 <CAN_ClearITPendingBit+0xc0>
 80026c4:	e035      	b.n	8002732 <CAN_ClearITPendingBit+0xce>
 80026c6:	687b      	ldr	r3, [r7, #4]
 80026c8:	4a1d      	ldr	r2, [pc, #116]	; (8002740 <CAN_ClearITPendingBit+0xdc>)
 80026ca:	609a      	str	r2, [r3, #8]
 80026cc:	e031      	b.n	8002732 <CAN_ClearITPendingBit+0xce>
 80026ce:	687b      	ldr	r3, [r7, #4]
 80026d0:	2208      	movs	r2, #8
 80026d2:	60da      	str	r2, [r3, #12]
 80026d4:	e02d      	b.n	8002732 <CAN_ClearITPendingBit+0xce>
 80026d6:	687b      	ldr	r3, [r7, #4]
 80026d8:	2210      	movs	r2, #16
 80026da:	60da      	str	r2, [r3, #12]
 80026dc:	e029      	b.n	8002732 <CAN_ClearITPendingBit+0xce>
 80026de:	687b      	ldr	r3, [r7, #4]
 80026e0:	2208      	movs	r2, #8
 80026e2:	611a      	str	r2, [r3, #16]
 80026e4:	e025      	b.n	8002732 <CAN_ClearITPendingBit+0xce>
 80026e6:	687b      	ldr	r3, [r7, #4]
 80026e8:	2210      	movs	r2, #16
 80026ea:	611a      	str	r2, [r3, #16]
 80026ec:	e021      	b.n	8002732 <CAN_ClearITPendingBit+0xce>
 80026ee:	687b      	ldr	r3, [r7, #4]
 80026f0:	2208      	movs	r2, #8
 80026f2:	605a      	str	r2, [r3, #4]
 80026f4:	e01d      	b.n	8002732 <CAN_ClearITPendingBit+0xce>
 80026f6:	687b      	ldr	r3, [r7, #4]
 80026f8:	2210      	movs	r2, #16
 80026fa:	605a      	str	r2, [r3, #4]
 80026fc:	e019      	b.n	8002732 <CAN_ClearITPendingBit+0xce>
 80026fe:	687b      	ldr	r3, [r7, #4]
 8002700:	2204      	movs	r2, #4
 8002702:	605a      	str	r2, [r3, #4]
 8002704:	e015      	b.n	8002732 <CAN_ClearITPendingBit+0xce>
 8002706:	687b      	ldr	r3, [r7, #4]
 8002708:	2204      	movs	r2, #4
 800270a:	605a      	str	r2, [r3, #4]
 800270c:	e011      	b.n	8002732 <CAN_ClearITPendingBit+0xce>
 800270e:	687b      	ldr	r3, [r7, #4]
 8002710:	2204      	movs	r2, #4
 8002712:	605a      	str	r2, [r3, #4]
 8002714:	e00d      	b.n	8002732 <CAN_ClearITPendingBit+0xce>
 8002716:	687b      	ldr	r3, [r7, #4]
 8002718:	2200      	movs	r2, #0
 800271a:	619a      	str	r2, [r3, #24]
 800271c:	687b      	ldr	r3, [r7, #4]
 800271e:	2204      	movs	r2, #4
 8002720:	605a      	str	r2, [r3, #4]
 8002722:	e006      	b.n	8002732 <CAN_ClearITPendingBit+0xce>
 8002724:	687b      	ldr	r3, [r7, #4]
 8002726:	2200      	movs	r2, #0
 8002728:	619a      	str	r2, [r3, #24]
 800272a:	687b      	ldr	r3, [r7, #4]
 800272c:	2204      	movs	r2, #4
 800272e:	605a      	str	r2, [r3, #4]
 8002730:	bf00      	nop
 8002732:	bf00      	nop
 8002734:	370c      	adds	r7, #12
 8002736:	46bd      	mov	sp, r7
 8002738:	f85d 7b04 	ldr.w	r7, [sp], #4
 800273c:	4770      	bx	lr
 800273e:	bf00      	nop
 8002740:	00010101 	andeq	r0, r1, r1, lsl #2

08002744 <CheckITStatus>:
 8002744:	b480      	push	{r7}
 8002746:	b085      	sub	sp, #20
 8002748:	af00      	add	r7, sp, #0
 800274a:	6078      	str	r0, [r7, #4]
 800274c:	6039      	str	r1, [r7, #0]
 800274e:	2300      	movs	r3, #0
 8002750:	73fb      	strb	r3, [r7, #15]
 8002752:	687a      	ldr	r2, [r7, #4]
 8002754:	683b      	ldr	r3, [r7, #0]
 8002756:	4013      	ands	r3, r2
 8002758:	2b00      	cmp	r3, #0
 800275a:	d002      	beq.n	8002762 <CheckITStatus+0x1e>
 800275c:	2301      	movs	r3, #1
 800275e:	73fb      	strb	r3, [r7, #15]
 8002760:	e001      	b.n	8002766 <CheckITStatus+0x22>
 8002762:	2300      	movs	r3, #0
 8002764:	73fb      	strb	r3, [r7, #15]
 8002766:	7bfb      	ldrb	r3, [r7, #15]
 8002768:	4618      	mov	r0, r3
 800276a:	3714      	adds	r7, #20
 800276c:	46bd      	mov	sp, r7
 800276e:	f85d 7b04 	ldr.w	r7, [sp], #4
 8002772:	4770      	bx	lr

08002774 <CRC_ResetDR>:
 8002774:	b480      	push	{r7}
 8002776:	af00      	add	r7, sp, #0
 8002778:	4b03      	ldr	r3, [pc, #12]	; (8002788 <CRC_ResetDR+0x14>)
 800277a:	2201      	movs	r2, #1
 800277c:	609a      	str	r2, [r3, #8]
 800277e:	bf00      	nop
 8002780:	46bd      	mov	sp, r7
 8002782:	f85d 7b04 	ldr.w	r7, [sp], #4
 8002786:	4770      	bx	lr
 8002788:	40023000 	andmi	r3, r2, r0

0800278c <CRC_CalcCRC>:
 800278c:	b480      	push	{r7}
 800278e:	b083      	sub	sp, #12
 8002790:	af00      	add	r7, sp, #0
 8002792:	6078      	str	r0, [r7, #4]
 8002794:	4a05      	ldr	r2, [pc, #20]	; (80027ac <CRC_CalcCRC+0x20>)
 8002796:	687b      	ldr	r3, [r7, #4]
 8002798:	6013      	str	r3, [r2, #0]
 800279a:	4b04      	ldr	r3, [pc, #16]	; (80027ac <CRC_CalcCRC+0x20>)
 800279c:	681b      	ldr	r3, [r3, #0]
 800279e:	4618      	mov	r0, r3
 80027a0:	370c      	adds	r7, #12
 80027a2:	46bd      	mov	sp, r7
 80027a4:	f85d 7b04 	ldr.w	r7, [sp], #4
 80027a8:	4770      	bx	lr
 80027aa:	bf00      	nop
 80027ac:	40023000 	andmi	r3, r2, r0

080027b0 <CRC_CalcBlockCRC>:
 80027b0:	b480      	push	{r7}
 80027b2:	b085      	sub	sp, #20
 80027b4:	af00      	add	r7, sp, #0
 80027b6:	6078      	str	r0, [r7, #4]
 80027b8:	6039      	str	r1, [r7, #0]
 80027ba:	2300      	movs	r3, #0
 80027bc:	60fb      	str	r3, [r7, #12]
 80027be:	2300      	movs	r3, #0
 80027c0:	60fb      	str	r3, [r7, #12]
 80027c2:	e009      	b.n	80027d8 <CRC_CalcBlockCRC+0x28>
 80027c4:	490a      	ldr	r1, [pc, #40]	; (80027f0 <CRC_CalcBlockCRC+0x40>)
 80027c6:	68fb      	ldr	r3, [r7, #12]
 80027c8:	009b      	lsls	r3, r3, #2
 80027ca:	687a      	ldr	r2, [r7, #4]
 80027cc:	4413      	add	r3, r2
 80027ce:	681b      	ldr	r3, [r3, #0]
 80027d0:	600b      	str	r3, [r1, #0]
 80027d2:	68fb      	ldr	r3, [r7, #12]
 80027d4:	3301      	adds	r3, #1
 80027d6:	60fb      	str	r3, [r7, #12]
 80027d8:	68fa      	ldr	r2, [r7, #12]
 80027da:	683b      	ldr	r3, [r7, #0]
 80027dc:	429a      	cmp	r2, r3
 80027de:	d3f1      	bcc.n	80027c4 <CRC_CalcBlockCRC+0x14>
 80027e0:	4b03      	ldr	r3, [pc, #12]	; (80027f0 <CRC_CalcBlockCRC+0x40>)
 80027e2:	681b      	ldr	r3, [r3, #0]
 80027e4:	4618      	mov	r0, r3
 80027e6:	3714      	adds	r7, #20
 80027e8:	46bd      	mov	sp, r7
 80027ea:	f85d 7b04 	ldr.w	r7, [sp], #4
 80027ee:	4770      	bx	lr
 80027f0:	40023000 	andmi	r3, r2, r0

080027f4 <CRC_GetCRC>:
 80027f4:	b480      	push	{r7}
 80027f6:	af00      	add	r7, sp, #0
 80027f8:	4b03      	ldr	r3, [pc, #12]	; (8002808 <CRC_GetCRC+0x14>)
 80027fa:	681b      	ldr	r3, [r3, #0]
 80027fc:	4618      	mov	r0, r3
 80027fe:	46bd      	mov	sp, r7
 8002800:	f85d 7b04 	ldr.w	r7, [sp], #4
 8002804:	4770      	bx	lr
 8002806:	bf00      	nop
 8002808:	40023000 	andmi	r3, r2, r0

0800280c <CRC_SetIDRegister>:
 800280c:	b480      	push	{r7}
 800280e:	b083      	sub	sp, #12
 8002810:	af00      	add	r7, sp, #0
 8002812:	4603      	mov	r3, r0
 8002814:	71fb      	strb	r3, [r7, #7]
 8002816:	4a04      	ldr	r2, [pc, #16]	; (8002828 <CRC_SetIDRegister+0x1c>)
 8002818:	79fb      	ldrb	r3, [r7, #7]
 800281a:	7113      	strb	r3, [r2, #4]
 800281c:	bf00      	nop
 800281e:	370c      	adds	r7, #12
 8002820:	46bd      	mov	sp, r7
 8002822:	f85d 7b04 	ldr.w	r7, [sp], #4
 8002826:	4770      	bx	lr
 8002828:	40023000 	andmi	r3, r2, r0

0800282c <CRC_GetIDRegister>:
 800282c:	b480      	push	{r7}
 800282e:	af00      	add	r7, sp, #0
 8002830:	4b03      	ldr	r3, [pc, #12]	; (8002840 <CRC_GetIDRegister+0x14>)
 8002832:	791b      	ldrb	r3, [r3, #4]
 8002834:	b2db      	uxtb	r3, r3
 8002836:	4618      	mov	r0, r3
 8002838:	46bd      	mov	sp, r7
 800283a:	f85d 7b04 	ldr.w	r7, [sp], #4
 800283e:	4770      	bx	lr
 8002840:	40023000 	andmi	r3, r2, r0

08002844 <CRYP_AES_ECB>:
 8002844:	b590      	push	{r4, r7, lr}
 8002846:	b0bd      	sub	sp, #244	; 0xf4
 8002848:	af00      	add	r7, sp, #0
 800284a:	60b9      	str	r1, [r7, #8]
 800284c:	607b      	str	r3, [r7, #4]
 800284e:	4603      	mov	r3, r0
 8002850:	73fb      	strb	r3, [r7, #15]
 8002852:	4613      	mov	r3, r2
 8002854:	81bb      	strh	r3, [r7, #12]
 8002856:	2300      	movs	r3, #0
 8002858:	617b      	str	r3, [r7, #20]
 800285a:	2300      	movs	r3, #0
 800285c:	f8c7 30dc 	str.w	r3, [r7, #220]	; 0xdc
 8002860:	2301      	movs	r3, #1
 8002862:	f887 30ef 	strb.w	r3, [r7, #239]	; 0xef
 8002866:	68bb      	ldr	r3, [r7, #8]
 8002868:	f8c7 30d8 	str.w	r3, [r7, #216]	; 0xd8
 800286c:	687b      	ldr	r3, [r7, #4]
 800286e:	f8c7 30e8 	str.w	r3, [r7, #232]	; 0xe8
 8002872:	f8d7 3104 	ldr.w	r3, [r7, #260]	; 0x104
 8002876:	f8c7 30e4 	str.w	r3, [r7, #228]	; 0xe4
 800287a:	2300      	movs	r3, #0
 800287c:	f8c7 30e0 	str.w	r3, [r7, #224]	; 0xe0
 8002880:	f107 0318 	add.w	r3, r7, #24
 8002884:	4618      	mov	r0, r3
 8002886:	f002 fced 	bl	8005264 <CRYP_KeyStructInit>
 800288a:	89bb      	ldrh	r3, [r7, #12]
 800288c:	2bc0      	cmp	r3, #192	; 0xc0
 800288e:	d04c      	beq.n	800292a <CRYP_AES_ECB+0xe6>
 8002890:	f5b3 7f80 	cmp.w	r3, #256	; 0x100
 8002894:	f000 80a8 	beq.w	80029e8 <CRYP_AES_ECB+0x1a4>
 8002898:	2b80      	cmp	r3, #128	; 0x80
 800289a:	d000      	beq.n	800289e <CRYP_AES_ECB+0x5a>
 800289c:	e123      	b.n	8002ae6 <CRYP_AES_ECB+0x2a2>
 800289e:	2300      	movs	r3, #0
 80028a0:	647b      	str	r3, [r7, #68]	; 0x44
 80028a2:	f8d7 30d8 	ldr.w	r3, [r7, #216]	; 0xd8
 80028a6:	681b      	ldr	r3, [r3, #0]
 80028a8:	f8c7 30d0 	str.w	r3, [r7, #208]	; 0xd0
 80028ac:	f8d7 30d0 	ldr.w	r3, [r7, #208]	; 0xd0
 80028b0:	ba1b      	rev	r3, r3
 80028b2:	f8c7 3080 	str.w	r3, [r7, #128]	; 0x80
 80028b6:	f8d7 3080 	ldr.w	r3, [r7, #128]	; 0x80
 80028ba:	62bb      	str	r3, [r7, #40]	; 0x28
 80028bc:	f8d7 30d8 	ldr.w	r3, [r7, #216]	; 0xd8
 80028c0:	3304      	adds	r3, #4
 80028c2:	f8c7 30d8 	str.w	r3, [r7, #216]	; 0xd8
 80028c6:	f8d7 30d8 	ldr.w	r3, [r7, #216]	; 0xd8
 80028ca:	681b      	ldr	r3, [r3, #0]
 80028cc:	f8c7 30cc 	str.w	r3, [r7, #204]	; 0xcc
 80028d0:	f8d7 30cc 	ldr.w	r3, [r7, #204]	; 0xcc
 80028d4:	ba1b      	rev	r3, r3
 80028d6:	f8c7 3084 	str.w	r3, [r7, #132]	; 0x84
 80028da:	f8d7 3084 	ldr.w	r3, [r7, #132]	; 0x84
 80028de:	62fb      	str	r3, [r7, #44]	; 0x2c
 80028e0:	f8d7 30d8 	ldr.w	r3, [r7, #216]	; 0xd8
 80028e4:	3304      	adds	r3, #4
 80028e6:	f8c7 30d8 	str.w	r3, [r7, #216]	; 0xd8
 80028ea:	f8d7 30d8 	ldr.w	r3, [r7, #216]	; 0xd8
 80028ee:	681b      	ldr	r3, [r3, #0]
 80028f0:	f8c7 30c8 	str.w	r3, [r7, #200]	; 0xc8
 80028f4:	f8d7 30c8 	ldr.w	r3, [r7, #200]	; 0xc8
 80028f8:	ba1b      	rev	r3, r3
 80028fa:	f8c7 3088 	str.w	r3, [r7, #136]	; 0x88
 80028fe:	f8d7 3088 	ldr.w	r3, [r7, #136]	; 0x88
 8002902:	633b      	str	r3, [r7, #48]	; 0x30
 8002904:	f8d7 30d8 	ldr.w	r3, [r7, #216]	; 0xd8
 8002908:	3304      	adds	r3, #4
 800290a:	f8c7 30d8 	str.w	r3, [r7, #216]	; 0xd8
 800290e:	f8d7 30d8 	ldr.w	r3, [r7, #216]	; 0xd8
 8002912:	681b      	ldr	r3, [r3, #0]
 8002914:	f8c7 3090 	str.w	r3, [r7, #144]	; 0x90
 8002918:	f8d7 3090 	ldr.w	r3, [r7, #144]	; 0x90
 800291c:	ba1b      	rev	r3, r3
 800291e:	f8c7 308c 	str.w	r3, [r7, #140]	; 0x8c
 8002922:	f8d7 308c 	ldr.w	r3, [r7, #140]	; 0x8c
 8002926:	637b      	str	r3, [r7, #52]	; 0x34
 8002928:	e0dd      	b.n	8002ae6 <CRYP_AES_ECB+0x2a2>
 800292a:	f44f 7380 	mov.w	r3, #256	; 0x100
 800292e:	647b      	str	r3, [r7, #68]	; 0x44
 8002930:	f8d7 30d8 	ldr.w	r3, [r7, #216]	; 0xd8
 8002934:	681b      	ldr	r3, [r3, #0]
 8002936:	f8c7 30c0 	str.w	r3, [r7, #192]	; 0xc0
 800293a:	f8d7 30c0 	ldr.w	r3, [r7, #192]	; 0xc0
 800293e:	ba1b      	rev	r3, r3
 8002940:	66bb      	str	r3, [r7, #104]	; 0x68
 8002942:	6ebb      	ldr	r3, [r7, #104]	; 0x68
 8002944:	623b      	str	r3, [r7, #32]
 8002946:	f8d7 30d8 	ldr.w	r3, [r7, #216]	; 0xd8
 800294a:	3304      	adds	r3, #4
 800294c:	f8c7 30d8 	str.w	r3, [r7, #216]	; 0xd8
 8002950:	f8d7 30d8 	ldr.w	r3, [r7, #216]	; 0xd8
 8002954:	681b      	ldr	r3, [r3, #0]
 8002956:	f8c7 30bc 	str.w	r3, [r7, #188]	; 0xbc
 800295a:	f8d7 30bc 	ldr.w	r3, [r7, #188]	; 0xbc
 800295e:	ba1b      	rev	r3, r3
 8002960:	66fb      	str	r3, [r7, #108]	; 0x6c
 8002962:	6efb      	ldr	r3, [r7, #108]	; 0x6c
 8002964:	627b      	str	r3, [r7, #36]	; 0x24
 8002966:	f8d7 30d8 	ldr.w	r3, [r7, #216]	; 0xd8
 800296a:	3304      	adds	r3, #4
 800296c:	f8c7 30d8 	str.w	r3, [r7, #216]	; 0xd8
 8002970:	f8d7 30d8 	ldr.w	r3, [r7, #216]	; 0xd8
 8002974:	681b      	ldr	r3, [r3, #0]
 8002976:	f8c7 30b8 	str.w	r3, [r7, #184]	; 0xb8
 800297a:	f8d7 30b8 	ldr.w	r3, [r7, #184]	; 0xb8
 800297e:	ba1b      	rev	r3, r3
 8002980:	673b      	str	r3, [r7, #112]	; 0x70
 8002982:	6f3b      	ldr	r3, [r7, #112]	; 0x70
 8002984:	62bb      	str	r3, [r7, #40]	; 0x28
 8002986:	f8d7 30d8 	ldr.w	r3, [r7, #216]	; 0xd8
 800298a:	3304      	adds	r3, #4
 800298c:	f8c7 30d8 	str.w	r3, [r7, #216]	; 0xd8
 8002990:	f8d7 30d8 	ldr.w	r3, [r7, #216]	; 0xd8
 8002994:	681b      	ldr	r3, [r3, #0]
 8002996:	f8c7 30b4 	str.w	r3, [r7, #180]	; 0xb4
 800299a:	f8d7 30b4 	ldr.w	r3, [r7, #180]	; 0xb4
 800299e:	ba1b      	rev	r3, r3
 80029a0:	677b      	str	r3, [r7, #116]	; 0x74
 80029a2:	6f7b      	ldr	r3, [r7, #116]	; 0x74
 80029a4:	62fb      	str	r3, [r7, #44]	; 0x2c
 80029a6:	f8d7 30d8 	ldr.w	r3, [r7, #216]	; 0xd8
 80029aa:	3304      	adds	r3, #4
 80029ac:	f8c7 30d8 	str.w	r3, [r7, #216]	; 0xd8
 80029b0:	f8d7 30d8 	ldr.w	r3, [r7, #216]	; 0xd8
 80029b4:	681b      	ldr	r3, [r3, #0]
 80029b6:	f8c7 30b0 	str.w	r3, [r7, #176]	; 0xb0
 80029ba:	f8d7 30b0 	ldr.w	r3, [r7, #176]	; 0xb0
 80029be:	ba1b      	rev	r3, r3
 80029c0:	67bb      	str	r3, [r7, #120]	; 0x78
 80029c2:	6fbb      	ldr	r3, [r7, #120]	; 0x78
 80029c4:	633b      	str	r3, [r7, #48]	; 0x30
 80029c6:	f8d7 30d8 	ldr.w	r3, [r7, #216]	; 0xd8
 80029ca:	3304      	adds	r3, #4
 80029cc:	f8c7 30d8 	str.w	r3, [r7, #216]	; 0xd8
 80029d0:	f8d7 30d8 	ldr.w	r3, [r7, #216]	; 0xd8
 80029d4:	681b      	ldr	r3, [r3, #0]
 80029d6:	f8c7 30d4 	str.w	r3, [r7, #212]	; 0xd4
 80029da:	f8d7 30d4 	ldr.w	r3, [r7, #212]	; 0xd4
 80029de:	ba1b      	rev	r3, r3
 80029e0:	67fb      	str	r3, [r7, #124]	; 0x7c
 80029e2:	6ffb      	ldr	r3, [r7, #124]	; 0x7c
 80029e4:	637b      	str	r3, [r7, #52]	; 0x34
 80029e6:	e07e      	b.n	8002ae6 <CRYP_AES_ECB+0x2a2>
 80029e8:	f44f 7300 	mov.w	r3, #512	; 0x200
 80029ec:	647b      	str	r3, [r7, #68]	; 0x44
 80029ee:	f8d7 30d8 	ldr.w	r3, [r7, #216]	; 0xd8
 80029f2:	681b      	ldr	r3, [r3, #0]
 80029f4:	f8c7 30ac 	str.w	r3, [r7, #172]	; 0xac
 80029f8:	f8d7 30ac 	ldr.w	r3, [r7, #172]	; 0xac
 80029fc:	ba1b      	rev	r3, r3
 80029fe:	64bb      	str	r3, [r7, #72]	; 0x48
 8002a00:	6cbb      	ldr	r3, [r7, #72]	; 0x48
 8002a02:	61bb      	str	r3, [r7, #24]
 8002a04:	f8d7 30d8 	ldr.w	r3, [r7, #216]	; 0xd8
 8002a08:	3304      	adds	r3, #4
 8002a0a:	f8c7 30d8 	str.w	r3, [r7, #216]	; 0xd8
 8002a0e:	f8d7 30d8 	ldr.w	r3, [r7, #216]	; 0xd8
 8002a12:	681b      	ldr	r3, [r3, #0]
 8002a14:	f8c7 30a8 	str.w	r3, [r7, #168]	; 0xa8
 8002a18:	f8d7 30a8 	ldr.w	r3, [r7, #168]	; 0xa8
 8002a1c:	ba1b      	rev	r3, r3
 8002a1e:	64fb      	str	r3, [r7, #76]	; 0x4c
 8002a20:	6cfb      	ldr	r3, [r7, #76]	; 0x4c
 8002a22:	61fb      	str	r3, [r7, #28]
 8002a24:	f8d7 30d8 	ldr.w	r3, [r7, #216]	; 0xd8
 8002a28:	3304      	adds	r3, #4
 8002a2a:	f8c7 30d8 	str.w	r3, [r7, #216]	; 0xd8
 8002a2e:	f8d7 30d8 	ldr.w	r3, [r7, #216]	; 0xd8
 8002a32:	681b      	ldr	r3, [r3, #0]
 8002a34:	f8c7 30a4 	str.w	r3, [r7, #164]	; 0xa4
 8002a38:	f8d7 30a4 	ldr.w	r3, [r7, #164]	; 0xa4
 8002a3c:	ba1b      	rev	r3, r3
 8002a3e:	653b      	str	r3, [r7, #80]	; 0x50
 8002a40:	6d3b      	ldr	r3, [r7, #80]	; 0x50
 8002a42:	623b      	str	r3, [r7, #32]
 8002a44:	f8d7 30d8 	ldr.w	r3, [r7, #216]	; 0xd8
 8002a48:	3304      	adds	r3, #4
 8002a4a:	f8c7 30d8 	str.w	r3, [r7, #216]	; 0xd8
 8002a4e:	f8d7 30d8 	ldr.w	r3, [r7, #216]	; 0xd8
 8002a52:	681b      	ldr	r3, [r3, #0]
 8002a54:	f8c7 30a0 	str.w	r3, [r7, #160]	; 0xa0
 8002a58:	f8d7 30a0 	ldr.w	r3, [r7, #160]	; 0xa0
 8002a5c:	ba1b      	rev	r3, r3
 8002a5e:	657b      	str	r3, [r7, #84]	; 0x54
 8002a60:	6d7b      	ldr	r3, [r7, #84]	; 0x54
 8002a62:	627b      	str	r3, [r7, #36]	; 0x24
 8002a64:	f8d7 30d8 	ldr.w	r3, [r7, #216]	; 0xd8
 8002a68:	3304      	adds	r3, #4
 8002a6a:	f8c7 30d8 	str.w	r3, [r7, #216]	; 0xd8
 8002a6e:	f8d7 30d8 	ldr.w	r3, [r7, #216]	; 0xd8
 8002a72:	681b      	ldr	r3, [r3, #0]
 8002a74:	f8c7 309c 	str.w	r3, [r7, #156]	; 0x9c
 8002a78:	f8d7 309c 	ldr.w	r3, [r7, #156]	; 0x9c
 8002a7c:	ba1b      	rev	r3, r3
 8002a7e:	65bb      	str	r3, [r7, #88]	; 0x58
 8002a80:	6dbb      	ldr	r3, [r7, #88]	; 0x58
 8002a82:	62bb      	str	r3, [r7, #40]	; 0x28
 8002a84:	f8d7 30d8 	ldr.w	r3, [r7, #216]	; 0xd8
 8002a88:	3304      	adds	r3, #4
 8002a8a:	f8c7 30d8 	str.w	r3, [r7, #216]	; 0xd8
 8002a8e:	f8d7 30d8 	ldr.w	r3, [r7, #216]	; 0xd8
 8002a92:	681b      	ldr	r3, [r3, #0]
 8002a94:	f8c7 3098 	str.w	r3, [r7, #152]	; 0x98
 8002a98:	f8d7 3098 	ldr.w	r3, [r7, #152]	; 0x98
 8002a9c:	ba1b      	rev	r3, r3
 8002a9e:	65fb      	str	r3, [r7, #92]	; 0x5c
 8002aa0:	6dfb      	ldr	r3, [r7, #92]	; 0x5c
 8002aa2:	62fb      	str	r3, [r7, #44]	; 0x2c
 8002aa4:	f8d7 30d8 	ldr.w	r3, [r7, #216]	; 0xd8
 8002aa8:	3304      	adds	r3, #4
 8002aaa:	f8c7 30d8 	str.w	r3, [r7, #216]	; 0xd8
 8002aae:	f8d7 30d8 	ldr.w	r3, [r7, #216]	; 0xd8
 8002ab2:	681b      	ldr	r3, [r3, #0]
 8002ab4:	f8c7 3094 	str.w	r3, [r7, #148]	; 0x94
 8002ab8:	f8d7 3094 	ldr.w	r3, [r7, #148]	; 0x94
 8002abc:	ba1b      	rev	r3, r3
 8002abe:	663b      	str	r3, [r7, #96]	; 0x60
 8002ac0:	6e3b      	ldr	r3, [r7, #96]	; 0x60
 8002ac2:	633b      	str	r3, [r7, #48]	; 0x30
 8002ac4:	f8d7 30d8 	ldr.w	r3, [r7, #216]	; 0xd8
 8002ac8:	3304      	adds	r3, #4
 8002aca:	f8c7 30d8 	str.w	r3, [r7, #216]	; 0xd8
 8002ace:	f8d7 30d8 	ldr.w	r3, [r7, #216]	; 0xd8
 8002ad2:	681b      	ldr	r3, [r3, #0]
 8002ad4:	f8c7 30c4 	str.w	r3, [r7, #196]	; 0xc4
 8002ad8:	f8d7 30c4 	ldr.w	r3, [r7, #196]	; 0xc4
 8002adc:	ba1b      	rev	r3, r3
 8002ade:	667b      	str	r3, [r7, #100]	; 0x64
 8002ae0:	6e7b      	ldr	r3, [r7, #100]	; 0x64
 8002ae2:	637b      	str	r3, [r7, #52]	; 0x34
 8002ae4:	bf00      	nop
 8002ae6:	7bfb      	ldrb	r3, [r7, #15]
 8002ae8:	2b00      	cmp	r3, #0
 8002aea:	d130      	bne.n	8002b4e <CRYP_AES_ECB+0x30a>
 8002aec:	f002 fc2a 	bl	8005344 <CRYP_FIFOFlush>
 8002af0:	2304      	movs	r3, #4
 8002af2:	63bb      	str	r3, [r7, #56]	; 0x38
 8002af4:	2338      	movs	r3, #56	; 0x38
 8002af6:	63fb      	str	r3, [r7, #60]	; 0x3c
 8002af8:	2300      	movs	r3, #0
 8002afa:	643b      	str	r3, [r7, #64]	; 0x40
 8002afc:	f107 0338 	add.w	r3, r7, #56	; 0x38
 8002b00:	4618      	mov	r0, r3
 8002b02:	f002 fb1b 	bl	800513c <CRYP_Init>
 8002b06:	f107 0318 	add.w	r3, r7, #24
 8002b0a:	4618      	mov	r0, r3
 8002b0c:	f002 fb7e 	bl	800520c <CRYP_KeyInit>
 8002b10:	2001      	movs	r0, #1
 8002b12:	f002 fc27 	bl	8005364 <CRYP_Cmd>
 8002b16:	2010      	movs	r0, #16
 8002b18:	f002 fe2a 	bl	8005770 <CRYP_GetFlagStatus>
 8002b1c:	4603      	mov	r3, r0
 8002b1e:	f8c7 30dc 	str.w	r3, [r7, #220]	; 0xdc
 8002b22:	697b      	ldr	r3, [r7, #20]
 8002b24:	3301      	adds	r3, #1
 8002b26:	617b      	str	r3, [r7, #20]
 8002b28:	697b      	ldr	r3, [r7, #20]
 8002b2a:	f5b3 3f80 	cmp.w	r3, #65536	; 0x10000
 8002b2e:	d003      	beq.n	8002b38 <CRYP_AES_ECB+0x2f4>
 8002b30:	f8d7 30dc 	ldr.w	r3, [r7, #220]	; 0xdc
 8002b34:	2b00      	cmp	r3, #0
 8002b36:	d1ee      	bne.n	8002b16 <CRYP_AES_ECB+0x2d2>
 8002b38:	f8d7 30dc 	ldr.w	r3, [r7, #220]	; 0xdc
 8002b3c:	2b00      	cmp	r3, #0
 8002b3e:	d003      	beq.n	8002b48 <CRYP_AES_ECB+0x304>
 8002b40:	2300      	movs	r3, #0
 8002b42:	f887 30ef 	strb.w	r3, [r7, #239]	; 0xef
 8002b46:	e009      	b.n	8002b5c <CRYP_AES_ECB+0x318>
 8002b48:	2304      	movs	r3, #4
 8002b4a:	63bb      	str	r3, [r7, #56]	; 0x38
 8002b4c:	e006      	b.n	8002b5c <CRYP_AES_ECB+0x318>
 8002b4e:	f107 0318 	add.w	r3, r7, #24
 8002b52:	4618      	mov	r0, r3
 8002b54:	f002 fb5a 	bl	800520c <CRYP_KeyInit>
 8002b58:	2300      	movs	r3, #0
 8002b5a:	63bb      	str	r3, [r7, #56]	; 0x38
 8002b5c:	2320      	movs	r3, #32
 8002b5e:	63fb      	str	r3, [r7, #60]	; 0x3c
 8002b60:	2380      	movs	r3, #128	; 0x80
 8002b62:	643b      	str	r3, [r7, #64]	; 0x40
 8002b64:	f107 0338 	add.w	r3, r7, #56	; 0x38
 8002b68:	4618      	mov	r0, r3
 8002b6a:	f002 fae7 	bl	800513c <CRYP_Init>
 8002b6e:	f002 fbe9 	bl	8005344 <CRYP_FIFOFlush>
 8002b72:	2001      	movs	r0, #1
 8002b74:	f002 fbf6 	bl	8005364 <CRYP_Cmd>
 8002b78:	f002 fde0 	bl	800573c <CRYP_GetCmdStatus>
 8002b7c:	4603      	mov	r3, r0
 8002b7e:	2b00      	cmp	r3, #0
 8002b80:	d101      	bne.n	8002b86 <CRYP_AES_ECB+0x342>
 8002b82:	2300      	movs	r3, #0
 8002b84:	e08b      	b.n	8002c9e <CRYP_AES_ECB+0x45a>
 8002b86:	2300      	movs	r3, #0
 8002b88:	f8c7 30e0 	str.w	r3, [r7, #224]	; 0xe0
 8002b8c:	e077      	b.n	8002c7e <CRYP_AES_ECB+0x43a>
 8002b8e:	f8d7 30e8 	ldr.w	r3, [r7, #232]	; 0xe8
 8002b92:	681b      	ldr	r3, [r3, #0]
 8002b94:	4618      	mov	r0, r3
 8002b96:	f002 fc03 	bl	80053a0 <CRYP_DataIn>
 8002b9a:	f8d7 30e8 	ldr.w	r3, [r7, #232]	; 0xe8
 8002b9e:	3304      	adds	r3, #4
 8002ba0:	f8c7 30e8 	str.w	r3, [r7, #232]	; 0xe8
 8002ba4:	f8d7 30e8 	ldr.w	r3, [r7, #232]	; 0xe8
 8002ba8:	681b      	ldr	r3, [r3, #0]
 8002baa:	4618      	mov	r0, r3
 8002bac:	f002 fbf8 	bl	80053a0 <CRYP_DataIn>
 8002bb0:	f8d7 30e8 	ldr.w	r3, [r7, #232]	; 0xe8
 8002bb4:	3304      	adds	r3, #4
 8002bb6:	f8c7 30e8 	str.w	r3, [r7, #232]	; 0xe8
 8002bba:	f8d7 30e8 	ldr.w	r3, [r7, #232]	; 0xe8
 8002bbe:	681b      	ldr	r3, [r3, #0]
 8002bc0:	4618      	mov	r0, r3
 8002bc2:	f002 fbed 	bl	80053a0 <CRYP_DataIn>
 8002bc6:	f8d7 30e8 	ldr.w	r3, [r7, #232]	; 0xe8
 8002bca:	3304      	adds	r3, #4
 8002bcc:	f8c7 30e8 	str.w	r3, [r7, #232]	; 0xe8
 8002bd0:	f8d7 30e8 	ldr.w	r3, [r7, #232]	; 0xe8
 8002bd4:	681b      	ldr	r3, [r3, #0]
 8002bd6:	4618      	mov	r0, r3
 8002bd8:	f002 fbe2 	bl	80053a0 <CRYP_DataIn>
 8002bdc:	f8d7 30e8 	ldr.w	r3, [r7, #232]	; 0xe8
 8002be0:	3304      	adds	r3, #4
 8002be2:	f8c7 30e8 	str.w	r3, [r7, #232]	; 0xe8
 8002be6:	2300      	movs	r3, #0
 8002be8:	617b      	str	r3, [r7, #20]
 8002bea:	2010      	movs	r0, #16
 8002bec:	f002 fdc0 	bl	8005770 <CRYP_GetFlagStatus>
 8002bf0:	4603      	mov	r3, r0
 8002bf2:	f8c7 30dc 	str.w	r3, [r7, #220]	; 0xdc
 8002bf6:	697b      	ldr	r3, [r7, #20]
 8002bf8:	3301      	adds	r3, #1
 8002bfa:	617b      	str	r3, [r7, #20]
 8002bfc:	697b      	ldr	r3, [r7, #20]
 8002bfe:	f5b3 3f80 	cmp.w	r3, #65536	; 0x10000
 8002c02:	d003      	beq.n	8002c0c <CRYP_AES_ECB+0x3c8>
 8002c04:	f8d7 30dc 	ldr.w	r3, [r7, #220]	; 0xdc
 8002c08:	2b00      	cmp	r3, #0
 8002c0a:	d1ee      	bne.n	8002bea <CRYP_AES_ECB+0x3a6>
 8002c0c:	f8d7 30dc 	ldr.w	r3, [r7, #220]	; 0xdc
 8002c10:	2b00      	cmp	r3, #0
 8002c12:	d003      	beq.n	8002c1c <CRYP_AES_ECB+0x3d8>
 8002c14:	2300      	movs	r3, #0
 8002c16:	f887 30ef 	strb.w	r3, [r7, #239]	; 0xef
 8002c1a:	e02b      	b.n	8002c74 <CRYP_AES_ECB+0x430>
 8002c1c:	f8d7 40e4 	ldr.w	r4, [r7, #228]	; 0xe4
 8002c20:	f002 fbce 	bl	80053c0 <CRYP_DataOut>
 8002c24:	4603      	mov	r3, r0
 8002c26:	6023      	str	r3, [r4, #0]
 8002c28:	f8d7 30e4 	ldr.w	r3, [r7, #228]	; 0xe4
 8002c2c:	3304      	adds	r3, #4
 8002c2e:	f8c7 30e4 	str.w	r3, [r7, #228]	; 0xe4
 8002c32:	f8d7 40e4 	ldr.w	r4, [r7, #228]	; 0xe4
 8002c36:	f002 fbc3 	bl	80053c0 <CRYP_DataOut>
 8002c3a:	4603      	mov	r3, r0
 8002c3c:	6023      	str	r3, [r4, #0]
 8002c3e:	f8d7 30e4 	ldr.w	r3, [r7, #228]	; 0xe4
 8002c42:	3304      	adds	r3, #4
 8002c44:	f8c7 30e4 	str.w	r3, [r7, #228]	; 0xe4
 8002c48:	f8d7 40e4 	ldr.w	r4, [r7, #228]	; 0xe4
 8002c4c:	f002 fbb8 	bl	80053c0 <CRYP_DataOut>
 8002c50:	4603      	mov	r3, r0
 8002c52:	6023      	str	r3, [r4, #0]
 8002c54:	f8d7 30e4 	ldr.w	r3, [r7, #228]	; 0xe4
 8002c58:	3304      	adds	r3, #4
 8002c5a:	f8c7 30e4 	str.w	r3, [r7, #228]	; 0xe4
 8002c5e:	f8d7 40e4 	ldr.w	r4, [r7, #228]	; 0xe4
 8002c62:	f002 fbad 	bl	80053c0 <CRYP_DataOut>
 8002c66:	4603      	mov	r3, r0
 8002c68:	6023      	str	r3, [r4, #0]
 8002c6a:	f8d7 30e4 	ldr.w	r3, [r7, #228]	; 0xe4
 8002c6e:	3304      	adds	r3, #4
 8002c70:	f8c7 30e4 	str.w	r3, [r7, #228]	; 0xe4
 8002c74:	f8d7 30e0 	ldr.w	r3, [r7, #224]	; 0xe0
 8002c78:	3310      	adds	r3, #16
 8002c7a:	f8c7 30e0 	str.w	r3, [r7, #224]	; 0xe0
 8002c7e:	f8d7 20e0 	ldr.w	r2, [r7, #224]	; 0xe0
 8002c82:	f8d7 3100 	ldr.w	r3, [r7, #256]	; 0x100
 8002c86:	429a      	cmp	r2, r3
 8002c88:	d204      	bcs.n	8002c94 <CRYP_AES_ECB+0x450>
 8002c8a:	f897 30ef 	ldrb.w	r3, [r7, #239]	; 0xef
 8002c8e:	2b00      	cmp	r3, #0
 8002c90:	f47f af7d 	bne.w	8002b8e <CRYP_AES_ECB+0x34a>
 8002c94:	2000      	movs	r0, #0
 8002c96:	f002 fb65 	bl	8005364 <CRYP_Cmd>
 8002c9a:	f897 30ef 	ldrb.w	r3, [r7, #239]	; 0xef
 8002c9e:	4618      	mov	r0, r3
 8002ca0:	37f4      	adds	r7, #244	; 0xf4
 8002ca2:	46bd      	mov	sp, r7
 8002ca4:	bd90      	pop	{r4, r7, pc}
 8002ca6:	bf00      	nop

08002ca8 <CRYP_AES_CBC>:
 8002ca8:	b590      	push	{r4, r7, lr}
 8002caa:	b0c9      	sub	sp, #292	; 0x124
 8002cac:	af00      	add	r7, sp, #0
 8002cae:	4604      	mov	r4, r0
 8002cb0:	f107 0008 	add.w	r0, r7, #8
 8002cb4:	6001      	str	r1, [r0, #0]
 8002cb6:	1d39      	adds	r1, r7, #4
 8002cb8:	600a      	str	r2, [r1, #0]
 8002cba:	4619      	mov	r1, r3
 8002cbc:	f107 030f 	add.w	r3, r7, #15
 8002cc0:	4622      	mov	r2, r4
 8002cc2:	701a      	strb	r2, [r3, #0]
 8002cc4:	f107 030c 	add.w	r3, r7, #12
 8002cc8:	460a      	mov	r2, r1
 8002cca:	801a      	strh	r2, [r3, #0]
 8002ccc:	f107 0310 	add.w	r3, r7, #16
 8002cd0:	2200      	movs	r2, #0
 8002cd2:	601a      	str	r2, [r3, #0]
 8002cd4:	2300      	movs	r3, #0
 8002cd6:	f8c7 310c 	str.w	r3, [r7, #268]	; 0x10c
 8002cda:	2301      	movs	r3, #1
 8002cdc:	f887 311f 	strb.w	r3, [r7, #287]	; 0x11f
 8002ce0:	1d3b      	adds	r3, r7, #4
 8002ce2:	681b      	ldr	r3, [r3, #0]
 8002ce4:	f8c7 3108 	str.w	r3, [r7, #264]	; 0x108
 8002ce8:	f8d7 3130 	ldr.w	r3, [r7, #304]	; 0x130
 8002cec:	f8c7 3118 	str.w	r3, [r7, #280]	; 0x118
 8002cf0:	f8d7 3138 	ldr.w	r3, [r7, #312]	; 0x138
 8002cf4:	f8c7 3114 	str.w	r3, [r7, #276]	; 0x114
 8002cf8:	f107 0308 	add.w	r3, r7, #8
 8002cfc:	681b      	ldr	r3, [r3, #0]
 8002cfe:	f8c7 3104 	str.w	r3, [r7, #260]	; 0x104
 8002d02:	2300      	movs	r3, #0
 8002d04:	f8c7 3110 	str.w	r3, [r7, #272]	; 0x110
 8002d08:	f107 0324 	add.w	r3, r7, #36	; 0x24
 8002d0c:	4618      	mov	r0, r3
 8002d0e:	f002 faa9 	bl	8005264 <CRYP_KeyStructInit>
 8002d12:	f107 030c 	add.w	r3, r7, #12
 8002d16:	881b      	ldrh	r3, [r3, #0]
 8002d18:	2bc0      	cmp	r3, #192	; 0xc0
 8002d1a:	d04c      	beq.n	8002db6 <CRYP_AES_CBC+0x10e>
 8002d1c:	f5b3 7f80 	cmp.w	r3, #256	; 0x100
 8002d20:	f000 80b4 	beq.w	8002e8c <CRYP_AES_CBC+0x1e4>
 8002d24:	2b80      	cmp	r3, #128	; 0x80
 8002d26:	d000      	beq.n	8002d2a <CRYP_AES_CBC+0x82>
 8002d28:	e131      	b.n	8002f8e <CRYP_AES_CBC+0x2e6>
 8002d2a:	2300      	movs	r3, #0
 8002d2c:	653b      	str	r3, [r7, #80]	; 0x50
 8002d2e:	f8d7 3108 	ldr.w	r3, [r7, #264]	; 0x108
 8002d32:	681b      	ldr	r3, [r3, #0]
 8002d34:	f8c7 30fc 	str.w	r3, [r7, #252]	; 0xfc
 8002d38:	f8d7 30fc 	ldr.w	r3, [r7, #252]	; 0xfc
 8002d3c:	ba1b      	rev	r3, r3
 8002d3e:	f8c7 309c 	str.w	r3, [r7, #156]	; 0x9c
 8002d42:	f8d7 309c 	ldr.w	r3, [r7, #156]	; 0x9c
 8002d46:	637b      	str	r3, [r7, #52]	; 0x34
 8002d48:	f8d7 3108 	ldr.w	r3, [r7, #264]	; 0x108
 8002d4c:	3304      	adds	r3, #4
 8002d4e:	f8c7 3108 	str.w	r3, [r7, #264]	; 0x108
 8002d52:	f8d7 3108 	ldr.w	r3, [r7, #264]	; 0x108
 8002d56:	681b      	ldr	r3, [r3, #0]
 8002d58:	f8c7 30f8 	str.w	r3, [r7, #248]	; 0xf8
 8002d5c:	f8d7 30f8 	ldr.w	r3, [r7, #248]	; 0xf8
 8002d60:	ba1b      	rev	r3, r3
 8002d62:	f8c7 30a0 	str.w	r3, [r7, #160]	; 0xa0
 8002d66:	f8d7 30a0 	ldr.w	r3, [r7, #160]	; 0xa0
 8002d6a:	63bb      	str	r3, [r7, #56]	; 0x38
 8002d6c:	f8d7 3108 	ldr.w	r3, [r7, #264]	; 0x108
 8002d70:	3304      	adds	r3, #4
 8002d72:	f8c7 3108 	str.w	r3, [r7, #264]	; 0x108
 8002d76:	f8d7 3108 	ldr.w	r3, [r7, #264]	; 0x108
 8002d7a:	681b      	ldr	r3, [r3, #0]
 8002d7c:	f8c7 30f4 	str.w	r3, [r7, #244]	; 0xf4
 8002d80:	f8d7 30f4 	ldr.w	r3, [r7, #244]	; 0xf4
 8002d84:	ba1b      	rev	r3, r3
 8002d86:	f8c7 30a4 	str.w	r3, [r7, #164]	; 0xa4
 8002d8a:	f8d7 30a4 	ldr.w	r3, [r7, #164]	; 0xa4
 8002d8e:	63fb      	str	r3, [r7, #60]	; 0x3c
 8002d90:	f8d7 3108 	ldr.w	r3, [r7, #264]	; 0x108
 8002d94:	3304      	adds	r3, #4
 8002d96:	f8c7 3108 	str.w	r3, [r7, #264]	; 0x108
 8002d9a:	f8d7 3108 	ldr.w	r3, [r7, #264]	; 0x108
 8002d9e:	681b      	ldr	r3, [r3, #0]
 8002da0:	f8c7 30ac 	str.w	r3, [r7, #172]	; 0xac
 8002da4:	f8d7 30ac 	ldr.w	r3, [r7, #172]	; 0xac
 8002da8:	ba1b      	rev	r3, r3
 8002daa:	f8c7 30a8 	str.w	r3, [r7, #168]	; 0xa8
 8002dae:	f8d7 30a8 	ldr.w	r3, [r7, #168]	; 0xa8
 8002db2:	643b      	str	r3, [r7, #64]	; 0x40
 8002db4:	e0eb      	b.n	8002f8e <CRYP_AES_CBC+0x2e6>
 8002db6:	f44f 7380 	mov.w	r3, #256	; 0x100
 8002dba:	653b      	str	r3, [r7, #80]	; 0x50
 8002dbc:	f8d7 3108 	ldr.w	r3, [r7, #264]	; 0x108
 8002dc0:	681b      	ldr	r3, [r3, #0]
 8002dc2:	f8c7 30ec 	str.w	r3, [r7, #236]	; 0xec
 8002dc6:	f8d7 30ec 	ldr.w	r3, [r7, #236]	; 0xec
 8002dca:	ba1b      	rev	r3, r3
 8002dcc:	f8c7 3084 	str.w	r3, [r7, #132]	; 0x84
 8002dd0:	f8d7 3084 	ldr.w	r3, [r7, #132]	; 0x84
 8002dd4:	62fb      	str	r3, [r7, #44]	; 0x2c
 8002dd6:	f8d7 3108 	ldr.w	r3, [r7, #264]	; 0x108
 8002dda:	3304      	adds	r3, #4
 8002ddc:	f8c7 3108 	str.w	r3, [r7, #264]	; 0x108
 8002de0:	f8d7 3108 	ldr.w	r3, [r7, #264]	; 0x108
 8002de4:	681b      	ldr	r3, [r3, #0]
 8002de6:	f8c7 30e8 	str.w	r3, [r7, #232]	; 0xe8
 8002dea:	f8d7 30e8 	ldr.w	r3, [r7, #232]	; 0xe8
 8002dee:	ba1b      	rev	r3, r3
 8002df0:	f8c7 3088 	str.w	r3, [r7, #136]	; 0x88
 8002df4:	f8d7 3088 	ldr.w	r3, [r7, #136]	; 0x88
 8002df8:	633b      	str	r3, [r7, #48]	; 0x30
 8002dfa:	f8d7 3108 	ldr.w	r3, [r7, #264]	; 0x108
 8002dfe:	3304      	adds	r3, #4
 8002e00:	f8c7 3108 	str.w	r3, [r7, #264]	; 0x108
 8002e04:	f8d7 3108 	ldr.w	r3, [r7, #264]	; 0x108
 8002e08:	681b      	ldr	r3, [r3, #0]
 8002e0a:	f8c7 30e4 	str.w	r3, [r7, #228]	; 0xe4
 8002e0e:	f8d7 30e4 	ldr.w	r3, [r7, #228]	; 0xe4
 8002e12:	ba1b      	rev	r3, r3
 8002e14:	f8c7 308c 	str.w	r3, [r7, #140]	; 0x8c
 8002e18:	f8d7 308c 	ldr.w	r3, [r7, #140]	; 0x8c
 8002e1c:	637b      	str	r3, [r7, #52]	; 0x34
 8002e1e:	f8d7 3108 	ldr.w	r3, [r7, #264]	; 0x108
 8002e22:	3304      	adds	r3, #4
 8002e24:	f8c7 3108 	str.w	r3, [r7, #264]	; 0x108
 8002e28:	f8d7 3108 	ldr.w	r3, [r7, #264]	; 0x108
 8002e2c:	681b      	ldr	r3, [r3, #0]
 8002e2e:	f8c7 30e0 	str.w	r3, [r7, #224]	; 0xe0
 8002e32:	f8d7 30e0 	ldr.w	r3, [r7, #224]	; 0xe0
 8002e36:	ba1b      	rev	r3, r3
 8002e38:	f8c7 3090 	str.w	r3, [r7, #144]	; 0x90
 8002e3c:	f8d7 3090 	ldr.w	r3, [r7, #144]	; 0x90
 8002e40:	63bb      	str	r3, [r7, #56]	; 0x38
 8002e42:	f8d7 3108 	ldr.w	r3, [r7, #264]	; 0x108
 8002e46:	3304      	adds	r3, #4
 8002e48:	f8c7 3108 	str.w	r3, [r7, #264]	; 0x108
 8002e4c:	f8d7 3108 	ldr.w	r3, [r7, #264]	; 0x108
 8002e50:	681b      	ldr	r3, [r3, #0]
 8002e52:	f8c7 30dc 	str.w	r3, [r7, #220]	; 0xdc
 8002e56:	f8d7 30dc 	ldr.w	r3, [r7, #220]	; 0xdc
 8002e5a:	ba1b      	rev	r3, r3
 8002e5c:	f8c7 3094 	str.w	r3, [r7, #148]	; 0x94
 8002e60:	f8d7 3094 	ldr.w	r3, [r7, #148]	; 0x94
 8002e64:	63fb      	str	r3, [r7, #60]	; 0x3c
 8002e66:	f8d7 3108 	ldr.w	r3, [r7, #264]	; 0x108
 8002e6a:	3304      	adds	r3, #4
 8002e6c:	f8c7 3108 	str.w	r3, [r7, #264]	; 0x108
 8002e70:	f8d7 3108 	ldr.w	r3, [r7, #264]	; 0x108
 8002e74:	681b      	ldr	r3, [r3, #0]
 8002e76:	f8c7 3100 	str.w	r3, [r7, #256]	; 0x100
 8002e7a:	f8d7 3100 	ldr.w	r3, [r7, #256]	; 0x100
 8002e7e:	ba1b      	rev	r3, r3
 8002e80:	f8c7 3098 	str.w	r3, [r7, #152]	; 0x98
 8002e84:	f8d7 3098 	ldr.w	r3, [r7, #152]	; 0x98
 8002e88:	643b      	str	r3, [r7, #64]	; 0x40
 8002e8a:	e080      	b.n	8002f8e <CRYP_AES_CBC+0x2e6>
 8002e8c:	f44f 7300 	mov.w	r3, #512	; 0x200
 8002e90:	653b      	str	r3, [r7, #80]	; 0x50
 8002e92:	f8d7 3108 	ldr.w	r3, [r7, #264]	; 0x108
 8002e96:	681b      	ldr	r3, [r3, #0]
 8002e98:	f8c7 30d4 	str.w	r3, [r7, #212]	; 0xd4
 8002e9c:	f8d7 30d4 	ldr.w	r3, [r7, #212]	; 0xd4
 8002ea0:	ba1b      	rev	r3, r3
 8002ea2:	667b      	str	r3, [r7, #100]	; 0x64
 8002ea4:	6e7b      	ldr	r3, [r7, #100]	; 0x64
 8002ea6:	627b      	str	r3, [r7, #36]	; 0x24
 8002ea8:	f8d7 3108 	ldr.w	r3, [r7, #264]	; 0x108
 8002eac:	3304      	adds	r3, #4
 8002eae:	f8c7 3108 	str.w	r3, [r7, #264]	; 0x108
 8002eb2:	f8d7 3108 	ldr.w	r3, [r7, #264]	; 0x108
 8002eb6:	681b      	ldr	r3, [r3, #0]
 8002eb8:	f8c7 30d0 	str.w	r3, [r7, #208]	; 0xd0
 8002ebc:	f8d7 30d0 	ldr.w	r3, [r7, #208]	; 0xd0
 8002ec0:	ba1b      	rev	r3, r3
 8002ec2:	66bb      	str	r3, [r7, #104]	; 0x68
 8002ec4:	6ebb      	ldr	r3, [r7, #104]	; 0x68
 8002ec6:	62bb      	str	r3, [r7, #40]	; 0x28
 8002ec8:	f8d7 3108 	ldr.w	r3, [r7, #264]	; 0x108
 8002ecc:	3304      	adds	r3, #4
 8002ece:	f8c7 3108 	str.w	r3, [r7, #264]	; 0x108
 8002ed2:	f8d7 3108 	ldr.w	r3, [r7, #264]	; 0x108
 8002ed6:	681b      	ldr	r3, [r3, #0]
 8002ed8:	f8c7 30cc 	str.w	r3, [r7, #204]	; 0xcc
 8002edc:	f8d7 30cc 	ldr.w	r3, [r7, #204]	; 0xcc
 8002ee0:	ba1b      	rev	r3, r3
 8002ee2:	66fb      	str	r3, [r7, #108]	; 0x6c
 8002ee4:	6efb      	ldr	r3, [r7, #108]	; 0x6c
 8002ee6:	62fb      	str	r3, [r7, #44]	; 0x2c
 8002ee8:	f8d7 3108 	ldr.w	r3, [r7, #264]	; 0x108
 8002eec:	3304      	adds	r3, #4
 8002eee:	f8c7 3108 	str.w	r3, [r7, #264]	; 0x108
 8002ef2:	f8d7 3108 	ldr.w	r3, [r7, #264]	; 0x108
 8002ef6:	681b      	ldr	r3, [r3, #0]
 8002ef8:	f8c7 30c8 	str.w	r3, [r7, #200]	; 0xc8
 8002efc:	f8d7 30c8 	ldr.w	r3, [r7, #200]	; 0xc8
 8002f00:	ba1b      	rev	r3, r3
 8002f02:	673b      	str	r3, [r7, #112]	; 0x70
 8002f04:	6f3b      	ldr	r3, [r7, #112]	; 0x70
 8002f06:	633b      	str	r3, [r7, #48]	; 0x30
 8002f08:	f8d7 3108 	ldr.w	r3, [r7, #264]	; 0x108
 8002f0c:	3304      	adds	r3, #4
 8002f0e:	f8c7 3108 	str.w	r3, [r7, #264]	; 0x108
 8002f12:	f8d7 3108 	ldr.w	r3, [r7, #264]	; 0x108
 8002f16:	681b      	ldr	r3, [r3, #0]
 8002f18:	f8c7 30c4 	str.w	r3, [r7, #196]	; 0xc4
 8002f1c:	f8d7 30c4 	ldr.w	r3, [r7, #196]	; 0xc4
 8002f20:	ba1b      	rev	r3, r3
 8002f22:	677b      	str	r3, [r7, #116]	; 0x74
 8002f24:	6f7b      	ldr	r3, [r7, #116]	; 0x74
 8002f26:	637b      	str	r3, [r7, #52]	; 0x34
 8002f28:	f8d7 3108 	ldr.w	r3, [r7, #264]	; 0x108
 8002f2c:	3304      	adds	r3, #4
 8002f2e:	f8c7 3108 	str.w	r3, [r7, #264]	; 0x108
 8002f32:	f8d7 3108 	ldr.w	r3, [r7, #264]	; 0x108
 8002f36:	681b      	ldr	r3, [r3, #0]
 8002f38:	f8c7 30c0 	str.w	r3, [r7, #192]	; 0xc0
 8002f3c:	f8d7 30c0 	ldr.w	r3, [r7, #192]	; 0xc0
 8002f40:	ba1b      	rev	r3, r3
 8002f42:	67bb      	str	r3, [r7, #120]	; 0x78
 8002f44:	6fbb      	ldr	r3, [r7, #120]	; 0x78
 8002f46:	63bb      	str	r3, [r7, #56]	; 0x38
 8002f48:	f8d7 3108 	ldr.w	r3, [r7, #264]	; 0x108
 8002f4c:	3304      	adds	r3, #4
 8002f4e:	f8c7 3108 	str.w	r3, [r7, #264]	; 0x108
 8002f52:	f8d7 3108 	ldr.w	r3, [r7, #264]	; 0x108
 8002f56:	681b      	ldr	r3, [r3, #0]
 8002f58:	f8c7 30bc 	str.w	r3, [r7, #188]	; 0xbc
 8002f5c:	f8d7 30bc 	ldr.w	r3, [r7, #188]	; 0xbc
 8002f60:	ba1b      	rev	r3, r3
 8002f62:	67fb      	str	r3, [r7, #124]	; 0x7c
 8002f64:	6ffb      	ldr	r3, [r7, #124]	; 0x7c
 8002f66:	63fb      	str	r3, [r7, #60]	; 0x3c
 8002f68:	f8d7 3108 	ldr.w	r3, [r7, #264]	; 0x108
 8002f6c:	3304      	adds	r3, #4
 8002f6e:	f8c7 3108 	str.w	r3, [r7, #264]	; 0x108
 8002f72:	f8d7 3108 	ldr.w	r3, [r7, #264]	; 0x108
 8002f76:	681b      	ldr	r3, [r3, #0]
 8002f78:	f8c7 30f0 	str.w	r3, [r7, #240]	; 0xf0
 8002f7c:	f8d7 30f0 	ldr.w	r3, [r7, #240]	; 0xf0
 8002f80:	ba1b      	rev	r3, r3
 8002f82:	f8c7 3080 	str.w	r3, [r7, #128]	; 0x80
 8002f86:	f8d7 3080 	ldr.w	r3, [r7, #128]	; 0x80
 8002f8a:	643b      	str	r3, [r7, #64]	; 0x40
 8002f8c:	bf00      	nop
 8002f8e:	f8d7 3104 	ldr.w	r3, [r7, #260]	; 0x104
 8002f92:	681b      	ldr	r3, [r3, #0]
 8002f94:	f8c7 30b8 	str.w	r3, [r7, #184]	; 0xb8
 8002f98:	f8d7 30b8 	ldr.w	r3, [r7, #184]	; 0xb8
 8002f9c:	ba1b      	rev	r3, r3
 8002f9e:	657b      	str	r3, [r7, #84]	; 0x54
 8002fa0:	6d7a      	ldr	r2, [r7, #84]	; 0x54
 8002fa2:	f107 0314 	add.w	r3, r7, #20
 8002fa6:	601a      	str	r2, [r3, #0]
 8002fa8:	f8d7 3104 	ldr.w	r3, [r7, #260]	; 0x104
 8002fac:	3304      	adds	r3, #4
 8002fae:	f8c7 3104 	str.w	r3, [r7, #260]	; 0x104
 8002fb2:	f8d7 3104 	ldr.w	r3, [r7, #260]	; 0x104
 8002fb6:	681b      	ldr	r3, [r3, #0]
 8002fb8:	f8c7 30b4 	str.w	r3, [r7, #180]	; 0xb4
 8002fbc:	f8d7 30b4 	ldr.w	r3, [r7, #180]	; 0xb4
 8002fc0:	ba1b      	rev	r3, r3
 8002fc2:	65bb      	str	r3, [r7, #88]	; 0x58
 8002fc4:	6dba      	ldr	r2, [r7, #88]	; 0x58
 8002fc6:	f107 0314 	add.w	r3, r7, #20
 8002fca:	605a      	str	r2, [r3, #4]
 8002fcc:	f8d7 3104 	ldr.w	r3, [r7, #260]	; 0x104
 8002fd0:	3304      	adds	r3, #4
 8002fd2:	f8c7 3104 	str.w	r3, [r7, #260]	; 0x104
 8002fd6:	f8d7 3104 	ldr.w	r3, [r7, #260]	; 0x104
 8002fda:	681b      	ldr	r3, [r3, #0]
 8002fdc:	f8c7 30b0 	str.w	r3, [r7, #176]	; 0xb0
 8002fe0:	f8d7 30b0 	ldr.w	r3, [r7, #176]	; 0xb0
 8002fe4:	ba1b      	rev	r3, r3
 8002fe6:	65fb      	str	r3, [r7, #92]	; 0x5c
 8002fe8:	6dfa      	ldr	r2, [r7, #92]	; 0x5c
 8002fea:	f107 0314 	add.w	r3, r7, #20
 8002fee:	609a      	str	r2, [r3, #8]
 8002ff0:	f8d7 3104 	ldr.w	r3, [r7, #260]	; 0x104
 8002ff4:	3304      	adds	r3, #4
 8002ff6:	f8c7 3104 	str.w	r3, [r7, #260]	; 0x104
 8002ffa:	f8d7 3104 	ldr.w	r3, [r7, #260]	; 0x104
 8002ffe:	681b      	ldr	r3, [r3, #0]
 8003000:	f8c7 30d8 	str.w	r3, [r7, #216]	; 0xd8
 8003004:	f8d7 30d8 	ldr.w	r3, [r7, #216]	; 0xd8
 8003008:	ba1b      	rev	r3, r3
 800300a:	663b      	str	r3, [r7, #96]	; 0x60
 800300c:	6e3a      	ldr	r2, [r7, #96]	; 0x60
 800300e:	f107 0314 	add.w	r3, r7, #20
 8003012:	60da      	str	r2, [r3, #12]
 8003014:	f107 030f 	add.w	r3, r7, #15
 8003018:	781b      	ldrb	r3, [r3, #0]
 800301a:	2b00      	cmp	r3, #0
 800301c:	d136      	bne.n	800308c <CRYP_AES_CBC+0x3e4>
 800301e:	f002 f991 	bl	8005344 <CRYP_FIFOFlush>
 8003022:	2304      	movs	r3, #4
 8003024:	647b      	str	r3, [r7, #68]	; 0x44
 8003026:	2338      	movs	r3, #56	; 0x38
 8003028:	64bb      	str	r3, [r7, #72]	; 0x48
 800302a:	2300      	movs	r3, #0
 800302c:	64fb      	str	r3, [r7, #76]	; 0x4c
 800302e:	f107 0344 	add.w	r3, r7, #68	; 0x44
 8003032:	4618      	mov	r0, r3
 8003034:	f002 f882 	bl	800513c <CRYP_Init>
 8003038:	f107 0324 	add.w	r3, r7, #36	; 0x24
 800303c:	4618      	mov	r0, r3
 800303e:	f002 f8e5 	bl	800520c <CRYP_KeyInit>
 8003042:	2001      	movs	r0, #1
 8003044:	f002 f98e 	bl	8005364 <CRYP_Cmd>
 8003048:	2010      	movs	r0, #16
 800304a:	f002 fb91 	bl	8005770 <CRYP_GetFlagStatus>
 800304e:	4603      	mov	r3, r0
 8003050:	f8c7 310c 	str.w	r3, [r7, #268]	; 0x10c
 8003054:	f107 0310 	add.w	r3, r7, #16
 8003058:	681b      	ldr	r3, [r3, #0]
 800305a:	1c5a      	adds	r2, r3, #1
 800305c:	f107 0310 	add.w	r3, r7, #16
 8003060:	601a      	str	r2, [r3, #0]
 8003062:	f107 0310 	add.w	r3, r7, #16
 8003066:	681b      	ldr	r3, [r3, #0]
 8003068:	f5b3 3f80 	cmp.w	r3, #65536	; 0x10000
 800306c:	d003      	beq.n	8003076 <CRYP_AES_CBC+0x3ce>
 800306e:	f8d7 310c 	ldr.w	r3, [r7, #268]	; 0x10c
 8003072:	2b00      	cmp	r3, #0
 8003074:	d1e8      	bne.n	8003048 <CRYP_AES_CBC+0x3a0>
 8003076:	f8d7 310c 	ldr.w	r3, [r7, #268]	; 0x10c
 800307a:	2b00      	cmp	r3, #0
 800307c:	d003      	beq.n	8003086 <CRYP_AES_CBC+0x3de>
 800307e:	2300      	movs	r3, #0
 8003080:	f887 311f 	strb.w	r3, [r7, #287]	; 0x11f
 8003084:	e009      	b.n	800309a <CRYP_AES_CBC+0x3f2>
 8003086:	2304      	movs	r3, #4
 8003088:	647b      	str	r3, [r7, #68]	; 0x44
 800308a:	e006      	b.n	800309a <CRYP_AES_CBC+0x3f2>
 800308c:	f107 0324 	add.w	r3, r7, #36	; 0x24
 8003090:	4618      	mov	r0, r3
 8003092:	f002 f8bb 	bl	800520c <CRYP_KeyInit>
 8003096:	2300      	movs	r3, #0
 8003098:	647b      	str	r3, [r7, #68]	; 0x44
 800309a:	2328      	movs	r3, #40	; 0x28
 800309c:	64bb      	str	r3, [r7, #72]	; 0x48
 800309e:	2380      	movs	r3, #128	; 0x80
 80030a0:	64fb      	str	r3, [r7, #76]	; 0x4c
 80030a2:	f107 0344 	add.w	r3, r7, #68	; 0x44
 80030a6:	4618      	mov	r0, r3
 80030a8:	f002 f848 	bl	800513c <CRYP_Init>
 80030ac:	f107 0314 	add.w	r3, r7, #20
 80030b0:	4618      	mov	r0, r3
 80030b2:	f002 f8f9 	bl	80052a8 <CRYP_IVInit>
 80030b6:	f002 f945 	bl	8005344 <CRYP_FIFOFlush>
 80030ba:	2001      	movs	r0, #1
 80030bc:	f002 f952 	bl	8005364 <CRYP_Cmd>
 80030c0:	f002 fb3c 	bl	800573c <CRYP_GetCmdStatus>
 80030c4:	4603      	mov	r3, r0
 80030c6:	2b00      	cmp	r3, #0
 80030c8:	d101      	bne.n	80030ce <CRYP_AES_CBC+0x426>
 80030ca:	2300      	movs	r3, #0
 80030cc:	e093      	b.n	80031f6 <CRYP_AES_CBC+0x54e>
 80030ce:	2300      	movs	r3, #0
 80030d0:	f8c7 3110 	str.w	r3, [r7, #272]	; 0x110
 80030d4:	e07f      	b.n	80031d6 <CRYP_AES_CBC+0x52e>
 80030d6:	f8d7 3118 	ldr.w	r3, [r7, #280]	; 0x118
 80030da:	681b      	ldr	r3, [r3, #0]
 80030dc:	4618      	mov	r0, r3
 80030de:	f002 f95f 	bl	80053a0 <CRYP_DataIn>
 80030e2:	f8d7 3118 	ldr.w	r3, [r7, #280]	; 0x118
 80030e6:	3304      	adds	r3, #4
 80030e8:	f8c7 3118 	str.w	r3, [r7, #280]	; 0x118
 80030ec:	f8d7 3118 	ldr.w	r3, [r7, #280]	; 0x118
 80030f0:	681b      	ldr	r3, [r3, #0]
 80030f2:	4618      	mov	r0, r3
 80030f4:	f002 f954 	bl	80053a0 <CRYP_DataIn>
 80030f8:	f8d7 3118 	ldr.w	r3, [r7, #280]	; 0x118
 80030fc:	3304      	adds	r3, #4
 80030fe:	f8c7 3118 	str.w	r3, [r7, #280]	; 0x118
 8003102:	f8d7 3118 	ldr.w	r3, [r7, #280]	; 0x118
 8003106:	681b      	ldr	r3, [r3, #0]
 8003108:	4618      	mov	r0, r3
 800310a:	f002 f949 	bl	80053a0 <CRYP_DataIn>
 800310e:	f8d7 3118 	ldr.w	r3, [r7, #280]	; 0x118
 8003112:	3304      	adds	r3, #4
 8003114:	f8c7 3118 	str.w	r3, [r7, #280]	; 0x118
 8003118:	f8d7 3118 	ldr.w	r3, [r7, #280]	; 0x118
 800311c:	681b      	ldr	r3, [r3, #0]
 800311e:	4618      	mov	r0, r3
 8003120:	f002 f93e 	bl	80053a0 <CRYP_DataIn>
 8003124:	f8d7 3118 	ldr.w	r3, [r7, #280]	; 0x118
 8003128:	3304      	adds	r3, #4
 800312a:	f8c7 3118 	str.w	r3, [r7, #280]	; 0x118
 800312e:	f107 0310 	add.w	r3, r7, #16
 8003132:	2200      	movs	r2, #0
 8003134:	601a      	str	r2, [r3, #0]
 8003136:	2010      	movs	r0, #16
 8003138:	f002 fb1a 	bl	8005770 <CRYP_GetFlagStatus>
 800313c:	4603      	mov	r3, r0
 800313e:	f8c7 310c 	str.w	r3, [r7, #268]	; 0x10c
 8003142:	f107 0310 	add.w	r3, r7, #16
 8003146:	681b      	ldr	r3, [r3, #0]
 8003148:	1c5a      	adds	r2, r3, #1
 800314a:	f107 0310 	add.w	r3, r7, #16
 800314e:	601a      	str	r2, [r3, #0]
 8003150:	f107 0310 	add.w	r3, r7, #16
 8003154:	681b      	ldr	r3, [r3, #0]
 8003156:	f5b3 3f80 	cmp.w	r3, #65536	; 0x10000
 800315a:	d003      	beq.n	8003164 <CRYP_AES_CBC+0x4bc>
 800315c:	f8d7 310c 	ldr.w	r3, [r7, #268]	; 0x10c
 8003160:	2b00      	cmp	r3, #0
 8003162:	d1e8      	bne.n	8003136 <CRYP_AES_CBC+0x48e>
 8003164:	f8d7 310c 	ldr.w	r3, [r7, #268]	; 0x10c
 8003168:	2b00      	cmp	r3, #0
 800316a:	d003      	beq.n	8003174 <CRYP_AES_CBC+0x4cc>
 800316c:	2300      	movs	r3, #0
 800316e:	f887 311f 	strb.w	r3, [r7, #287]	; 0x11f
 8003172:	e02b      	b.n	80031cc <CRYP_AES_CBC+0x524>
 8003174:	f8d7 4114 	ldr.w	r4, [r7, #276]	; 0x114
 8003178:	f002 f922 	bl	80053c0 <CRYP_DataOut>
 800317c:	4603      	mov	r3, r0
 800317e:	6023      	str	r3, [r4, #0]
 8003180:	f8d7 3114 	ldr.w	r3, [r7, #276]	; 0x114
 8003184:	3304      	adds	r3, #4
 8003186:	f8c7 3114 	str.w	r3, [r7, #276]	; 0x114
 800318a:	f8d7 4114 	ldr.w	r4, [r7, #276]	; 0x114
 800318e:	f002 f917 	bl	80053c0 <CRYP_DataOut>
 8003192:	4603      	mov	r3, r0
 8003194:	6023      	str	r3, [r4, #0]
 8003196:	f8d7 3114 	ldr.w	r3, [r7, #276]	; 0x114
 800319a:	3304      	adds	r3, #4
 800319c:	f8c7 3114 	str.w	r3, [r7, #276]	; 0x114
 80031a0:	f8d7 4114 	ldr.w	r4, [r7, #276]	; 0x114
 80031a4:	f002 f90c 	bl	80053c0 <CRYP_DataOut>
 80031a8:	4603      	mov	r3, r0
 80031aa:	6023      	str	r3, [r4, #0]
 80031ac:	f8d7 3114 	ldr.w	r3, [r7, #276]	; 0x114
 80031b0:	3304      	adds	r3, #4
 80031b2:	f8c7 3114 	str.w	r3, [r7, #276]	; 0x114
 80031b6:	f8d7 4114 	ldr.w	r4, [r7, #276]	; 0x114
 80031ba:	f002 f901 	bl	80053c0 <CRYP_DataOut>
 80031be:	4603      	mov	r3, r0
 80031c0:	6023      	str	r3, [r4, #0]
 80031c2:	f8d7 3114 	ldr.w	r3, [r7, #276]	; 0x114
 80031c6:	3304      	adds	r3, #4
 80031c8:	f8c7 3114 	str.w	r3, [r7, #276]	; 0x114
 80031cc:	f8d7 3110 	ldr.w	r3, [r7, #272]	; 0x110
 80031d0:	3310      	adds	r3, #16
 80031d2:	f8c7 3110 	str.w	r3, [r7, #272]	; 0x110
 80031d6:	f8d7 2110 	ldr.w	r2, [r7, #272]	; 0x110
 80031da:	f8d7 3134 	ldr.w	r3, [r7, #308]	; 0x134
 80031de:	429a      	cmp	r2, r3
 80031e0:	d204      	bcs.n	80031ec <CRYP_AES_CBC+0x544>
 80031e2:	f897 311f 	ldrb.w	r3, [r7, #287]	; 0x11f
 80031e6:	2b00      	cmp	r3, #0
 80031e8:	f47f af75 	bne.w	80030d6 <CRYP_AES_CBC+0x42e>
 80031ec:	2000      	movs	r0, #0
 80031ee:	f002 f8b9 	bl	8005364 <CRYP_Cmd>
 80031f2:	f897 311f 	ldrb.w	r3, [r7, #287]	; 0x11f
 80031f6:	4618      	mov	r0, r3
 80031f8:	f507 7792 	add.w	r7, r7, #292	; 0x124
 80031fc:	46bd      	mov	sp, r7
 80031fe:	bd90      	pop	{r4, r7, pc}

08003200 <CRYP_AES_CTR>:
 8003200:	b590      	push	{r4, r7, lr}
 8003202:	b0c9      	sub	sp, #292	; 0x124
 8003204:	af00      	add	r7, sp, #0
 8003206:	4604      	mov	r4, r0
 8003208:	f107 0008 	add.w	r0, r7, #8
 800320c:	6001      	str	r1, [r0, #0]
 800320e:	1d39      	adds	r1, r7, #4
 8003210:	600a      	str	r2, [r1, #0]
 8003212:	4619      	mov	r1, r3
 8003214:	f107 030f 	add.w	r3, r7, #15
 8003218:	4622      	mov	r2, r4
 800321a:	701a      	strb	r2, [r3, #0]
 800321c:	f107 030c 	add.w	r3, r7, #12
 8003220:	460a      	mov	r2, r1
 8003222:	801a      	strh	r2, [r3, #0]
 8003224:	f107 0310 	add.w	r3, r7, #16
 8003228:	2200      	movs	r2, #0
 800322a:	601a      	str	r2, [r3, #0]
 800322c:	2300      	movs	r3, #0
 800322e:	f8c7 310c 	str.w	r3, [r7, #268]	; 0x10c
 8003232:	2301      	movs	r3, #1
 8003234:	f887 311f 	strb.w	r3, [r7, #287]	; 0x11f
 8003238:	1d3b      	adds	r3, r7, #4
 800323a:	681b      	ldr	r3, [r3, #0]
 800323c:	f8c7 3108 	str.w	r3, [r7, #264]	; 0x108
 8003240:	f8d7 3130 	ldr.w	r3, [r7, #304]	; 0x130
 8003244:	f8c7 3118 	str.w	r3, [r7, #280]	; 0x118
 8003248:	f8d7 3138 	ldr.w	r3, [r7, #312]	; 0x138
 800324c:	f8c7 3114 	str.w	r3, [r7, #276]	; 0x114
 8003250:	f107 0308 	add.w	r3, r7, #8
 8003254:	681b      	ldr	r3, [r3, #0]
 8003256:	f8c7 3104 	str.w	r3, [r7, #260]	; 0x104
 800325a:	2300      	movs	r3, #0
 800325c:	f8c7 3110 	str.w	r3, [r7, #272]	; 0x110
 8003260:	f107 0324 	add.w	r3, r7, #36	; 0x24
 8003264:	4618      	mov	r0, r3
 8003266:	f001 fffd 	bl	8005264 <CRYP_KeyStructInit>
 800326a:	f107 030c 	add.w	r3, r7, #12
 800326e:	881b      	ldrh	r3, [r3, #0]
 8003270:	2bc0      	cmp	r3, #192	; 0xc0
 8003272:	d04c      	beq.n	800330e <CRYP_AES_CTR+0x10e>
 8003274:	f5b3 7f80 	cmp.w	r3, #256	; 0x100
 8003278:	f000 80b4 	beq.w	80033e4 <CRYP_AES_CTR+0x1e4>
 800327c:	2b80      	cmp	r3, #128	; 0x80
 800327e:	d000      	beq.n	8003282 <CRYP_AES_CTR+0x82>
 8003280:	e131      	b.n	80034e6 <CRYP_AES_CTR+0x2e6>
 8003282:	2300      	movs	r3, #0
 8003284:	653b      	str	r3, [r7, #80]	; 0x50
 8003286:	f8d7 3108 	ldr.w	r3, [r7, #264]	; 0x108
 800328a:	681b      	ldr	r3, [r3, #0]
 800328c:	f8c7 30fc 	str.w	r3, [r7, #252]	; 0xfc
 8003290:	f8d7 30fc 	ldr.w	r3, [r7, #252]	; 0xfc
 8003294:	ba1b      	rev	r3, r3
 8003296:	f8c7 309c 	str.w	r3, [r7, #156]	; 0x9c
 800329a:	f8d7 309c 	ldr.w	r3, [r7, #156]	; 0x9c
 800329e:	637b      	str	r3, [r7, #52]	; 0x34
 80032a0:	f8d7 3108 	ldr.w	r3, [r7, #264]	; 0x108
 80032a4:	3304      	adds	r3, #4
 80032a6:	f8c7 3108 	str.w	r3, [r7, #264]	; 0x108
 80032aa:	f8d7 3108 	ldr.w	r3, [r7, #264]	; 0x108
 80032ae:	681b      	ldr	r3, [r3, #0]
 80032b0:	f8c7 30f8 	str.w	r3, [r7, #248]	; 0xf8
 80032b4:	f8d7 30f8 	ldr.w	r3, [r7, #248]	; 0xf8
 80032b8:	ba1b      	rev	r3, r3
 80032ba:	f8c7 30a0 	str.w	r3, [r7, #160]	; 0xa0
 80032be:	f8d7 30a0 	ldr.w	r3, [r7, #160]	; 0xa0
 80032c2:	63bb      	str	r3, [r7, #56]	; 0x38
 80032c4:	f8d7 3108 	ldr.w	r3, [r7, #264]	; 0x108
 80032c8:	3304      	adds	r3, #4
 80032ca:	f8c7 3108 	str.w	r3, [r7, #264]	; 0x108
 80032ce:	f8d7 3108 	ldr.w	r3, [r7, #264]	; 0x108
 80032d2:	681b      	ldr	r3, [r3, #0]
 80032d4:	f8c7 30f4 	str.w	r3, [r7, #244]	; 0xf4
 80032d8:	f8d7 30f4 	ldr.w	r3, [r7, #244]	; 0xf4
 80032dc:	ba1b      	rev	r3, r3
 80032de:	f8c7 30a4 	str.w	r3, [r7, #164]	; 0xa4
 80032e2:	f8d7 30a4 	ldr.w	r3, [r7, #164]	; 0xa4
 80032e6:	63fb      	str	r3, [r7, #60]	; 0x3c
 80032e8:	f8d7 3108 	ldr.w	r3, [r7, #264]	; 0x108
 80032ec:	3304      	adds	r3, #4
 80032ee:	f8c7 3108 	str.w	r3, [r7, #264]	; 0x108
 80032f2:	f8d7 3108 	ldr.w	r3, [r7, #264]	; 0x108
 80032f6:	681b      	ldr	r3, [r3, #0]
 80032f8:	f8c7 30ac 	str.w	r3, [r7, #172]	; 0xac
 80032fc:	f8d7 30ac 	ldr.w	r3, [r7, #172]	; 0xac
 8003300:	ba1b      	rev	r3, r3
 8003302:	f8c7 30a8 	str.w	r3, [r7, #168]	; 0xa8
 8003306:	f8d7 30a8 	ldr.w	r3, [r7, #168]	; 0xa8
 800330a:	643b      	str	r3, [r7, #64]	; 0x40
 800330c:	e0eb      	b.n	80034e6 <CRYP_AES_CTR+0x2e6>
 800330e:	f44f 7380 	mov.w	r3, #256	; 0x100
 8003312:	653b      	str	r3, [r7, #80]	; 0x50
 8003314:	f8d7 3108 	ldr.w	r3, [r7, #264]	; 0x108
 8003318:	681b      	ldr	r3, [r3, #0]
 800331a:	f8c7 30ec 	str.w	r3, [r7, #236]	; 0xec
 800331e:	f8d7 30ec 	ldr.w	r3, [r7, #236]	; 0xec
 8003322:	ba1b      	rev	r3, r3
 8003324:	f8c7 3084 	str.w	r3, [r7, #132]	; 0x84
 8003328:	f8d7 3084 	ldr.w	r3, [r7, #132]	; 0x84
 800332c:	62fb      	str	r3, [r7, #44]	; 0x2c
 800332e:	f8d7 3108 	ldr.w	r3, [r7, #264]	; 0x108
 8003332:	3304      	adds	r3, #4
 8003334:	f8c7 3108 	str.w	r3, [r7, #264]	; 0x108
 8003338:	f8d7 3108 	ldr.w	r3, [r7, #264]	; 0x108
 800333c:	681b      	ldr	r3, [r3, #0]
 800333e:	f8c7 30e8 	str.w	r3, [r7, #232]	; 0xe8
 8003342:	f8d7 30e8 	ldr.w	r3, [r7, #232]	; 0xe8
 8003346:	ba1b      	rev	r3, r3
 8003348:	f8c7 3088 	str.w	r3, [r7, #136]	; 0x88
 800334c:	f8d7 3088 	ldr.w	r3, [r7, #136]	; 0x88
 8003350:	633b      	str	r3, [r7, #48]	; 0x30
 8003352:	f8d7 3108 	ldr.w	r3, [r7, #264]	; 0x108
 8003356:	3304      	adds	r3, #4
 8003358:	f8c7 3108 	str.w	r3, [r7, #264]	; 0x108
 800335c:	f8d7 3108 	ldr.w	r3, [r7, #264]	; 0x108
 8003360:	681b      	ldr	r3, [r3, #0]
 8003362:	f8c7 30e4 	str.w	r3, [r7, #228]	; 0xe4
 8003366:	f8d7 30e4 	ldr.w	r3, [r7, #228]	; 0xe4
 800336a:	ba1b      	rev	r3, r3
 800336c:	f8c7 308c 	str.w	r3, [r7, #140]	; 0x8c
 8003370:	f8d7 308c 	ldr.w	r3, [r7, #140]	; 0x8c
 8003374:	637b      	str	r3, [r7, #52]	; 0x34
 8003376:	f8d7 3108 	ldr.w	r3, [r7, #264]	; 0x108
 800337a:	3304      	adds	r3, #4
 800337c:	f8c7 3108 	str.w	r3, [r7, #264]	; 0x108
 8003380:	f8d7 3108 	ldr.w	r3, [r7, #264]	; 0x108
 8003384:	681b      	ldr	r3, [r3, #0]
 8003386:	f8c7 30e0 	str.w	r3, [r7, #224]	; 0xe0
 800338a:	f8d7 30e0 	ldr.w	r3, [r7, #224]	; 0xe0
 800338e:	ba1b      	rev	r3, r3
 8003390:	f8c7 3090 	str.w	r3, [r7, #144]	; 0x90
 8003394:	f8d7 3090 	ldr.w	r3, [r7, #144]	; 0x90
 8003398:	63bb      	str	r3, [r7, #56]	; 0x38
 800339a:	f8d7 3108 	ldr.w	r3, [r7, #264]	; 0x108
 800339e:	3304      	adds	r3, #4
 80033a0:	f8c7 3108 	str.w	r3, [r7, #264]	; 0x108
 80033a4:	f8d7 3108 	ldr.w	r3, [r7, #264]	; 0x108
 80033a8:	681b      	ldr	r3, [r3, #0]
 80033aa:	f8c7 30dc 	str.w	r3, [r7, #220]	; 0xdc
 80033ae:	f8d7 30dc 	ldr.w	r3, [r7, #220]	; 0xdc
 80033b2:	ba1b      	rev	r3, r3
 80033b4:	f8c7 3094 	str.w	r3, [r7, #148]	; 0x94
 80033b8:	f8d7 3094 	ldr.w	r3, [r7, #148]	; 0x94
 80033bc:	63fb      	str	r3, [r7, #60]	; 0x3c
 80033be:	f8d7 3108 	ldr.w	r3, [r7, #264]	; 0x108
 80033c2:	3304      	adds	r3, #4
 80033c4:	f8c7 3108 	str.w	r3, [r7, #264]	; 0x108
 80033c8:	f8d7 3108 	ldr.w	r3, [r7, #264]	; 0x108
 80033cc:	681b      	ldr	r3, [r3, #0]
 80033ce:	f8c7 3100 	str.w	r3, [r7, #256]	; 0x100
 80033d2:	f8d7 3100 	ldr.w	r3, [r7, #256]	; 0x100
 80033d6:	ba1b      	rev	r3, r3
 80033d8:	f8c7 3098 	str.w	r3, [r7, #152]	; 0x98
 80033dc:	f8d7 3098 	ldr.w	r3, [r7, #152]	; 0x98
 80033e0:	643b      	str	r3, [r7, #64]	; 0x40
 80033e2:	e080      	b.n	80034e6 <CRYP_AES_CTR+0x2e6>
 80033e4:	f44f 7300 	mov.w	r3, #512	; 0x200
 80033e8:	653b      	str	r3, [r7, #80]	; 0x50
 80033ea:	f8d7 3108 	ldr.w	r3, [r7, #264]	; 0x108
 80033ee:	681b      	ldr	r3, [r3, #0]
 80033f0:	f8c7 30d4 	str.w	r3, [r7, #212]	; 0xd4
 80033f4:	f8d7 30d4 	ldr.w	r3, [r7, #212]	; 0xd4
 80033f8:	ba1b      	rev	r3, r3
 80033fa:	667b      	str	r3, [r7, #100]	; 0x64
 80033fc:	6e7b      	ldr	r3, [r7, #100]	; 0x64
 80033fe:	627b      	str	r3, [r7, #36]	; 0x24
 8003400:	f8d7 3108 	ldr.w	r3, [r7, #264]	; 0x108
 8003404:	3304      	adds	r3, #4
 8003406:	f8c7 3108 	str.w	r3, [r7, #264]	; 0x108
 800340a:	f8d7 3108 	ldr.w	r3, [r7, #264]	; 0x108
 800340e:	681b      	ldr	r3, [r3, #0]
 8003410:	f8c7 30d0 	str.w	r3, [r7, #208]	; 0xd0
 8003414:	f8d7 30d0 	ldr.w	r3, [r7, #208]	; 0xd0
 8003418:	ba1b      	rev	r3, r3
 800341a:	66bb      	str	r3, [r7, #104]	; 0x68
 800341c:	6ebb      	ldr	r3, [r7, #104]	; 0x68
 800341e:	62bb      	str	r3, [r7, #40]	; 0x28
 8003420:	f8d7 3108 	ldr.w	r3, [r7, #264]	; 0x108
 8003424:	3304      	adds	r3, #4
 8003426:	f8c7 3108 	str.w	r3, [r7, #264]	; 0x108
 800342a:	f8d7 3108 	ldr.w	r3, [r7, #264]	; 0x108
 800342e:	681b      	ldr	r3, [r3, #0]
 8003430:	f8c7 30cc 	str.w	r3, [r7, #204]	; 0xcc
 8003434:	f8d7 30cc 	ldr.w	r3, [r7, #204]	; 0xcc
 8003438:	ba1b      	rev	r3, r3
 800343a:	66fb      	str	r3, [r7, #108]	; 0x6c
 800343c:	6efb      	ldr	r3, [r7, #108]	; 0x6c
 800343e:	62fb      	str	r3, [r7, #44]	; 0x2c
 8003440:	f8d7 3108 	ldr.w	r3, [r7, #264]	; 0x108
 8003444:	3304      	adds	r3, #4
 8003446:	f8c7 3108 	str.w	r3, [r7, #264]	; 0x108
 800344a:	f8d7 3108 	ldr.w	r3, [r7, #264]	; 0x108
 800344e:	681b      	ldr	r3, [r3, #0]
 8003450:	f8c7 30c8 	str.w	r3, [r7, #200]	; 0xc8
 8003454:	f8d7 30c8 	ldr.w	r3, [r7, #200]	; 0xc8
 8003458:	ba1b      	rev	r3, r3
 800345a:	673b      	str	r3, [r7, #112]	; 0x70
 800345c:	6f3b      	ldr	r3, [r7, #112]	; 0x70
 800345e:	633b      	str	r3, [r7, #48]	; 0x30
 8003460:	f8d7 3108 	ldr.w	r3, [r7, #264]	; 0x108
 8003464:	3304      	adds	r3, #4
 8003466:	f8c7 3108 	str.w	r3, [r7, #264]	; 0x108
 800346a:	f8d7 3108 	ldr.w	r3, [r7, #264]	; 0x108
 800346e:	681b      	ldr	r3, [r3, #0]
 8003470:	f8c7 30c4 	str.w	r3, [r7, #196]	; 0xc4
 8003474:	f8d7 30c4 	ldr.w	r3, [r7, #196]	; 0xc4
 8003478:	ba1b      	rev	r3, r3
 800347a:	677b      	str	r3, [r7, #116]	; 0x74
 800347c:	6f7b      	ldr	r3, [r7, #116]	; 0x74
 800347e:	637b      	str	r3, [r7, #52]	; 0x34
 8003480:	f8d7 3108 	ldr.w	r3, [r7, #264]	; 0x108
 8003484:	3304      	adds	r3, #4
 8003486:	f8c7 3108 	str.w	r3, [r7, #264]	; 0x108
 800348a:	f8d7 3108 	ldr.w	r3, [r7, #264]	; 0x108
 800348e:	681b      	ldr	r3, [r3, #0]
 8003490:	f8c7 30c0 	str.w	r3, [r7, #192]	; 0xc0
 8003494:	f8d7 30c0 	ldr.w	r3, [r7, #192]	; 0xc0
 8003498:	ba1b      	rev	r3, r3
 800349a:	67bb      	str	r3, [r7, #120]	; 0x78
 800349c:	6fbb      	ldr	r3, [r7, #120]	; 0x78
 800349e:	63bb      	str	r3, [r7, #56]	; 0x38
 80034a0:	f8d7 3108 	ldr.w	r3, [r7, #264]	; 0x108
 80034a4:	3304      	adds	r3, #4
 80034a6:	f8c7 3108 	str.w	r3, [r7, #264]	; 0x108
 80034aa:	f8d7 3108 	ldr.w	r3, [r7, #264]	; 0x108
 80034ae:	681b      	ldr	r3, [r3, #0]
 80034b0:	f8c7 30bc 	str.w	r3, [r7, #188]	; 0xbc
 80034b4:	f8d7 30bc 	ldr.w	r3, [r7, #188]	; 0xbc
 80034b8:	ba1b      	rev	r3, r3
 80034ba:	67fb      	str	r3, [r7, #124]	; 0x7c
 80034bc:	6ffb      	ldr	r3, [r7, #124]	; 0x7c
 80034be:	63fb      	str	r3, [r7, #60]	; 0x3c
 80034c0:	f8d7 3108 	ldr.w	r3, [r7, #264]	; 0x108
 80034c4:	3304      	adds	r3, #4
 80034c6:	f8c7 3108 	str.w	r3, [r7, #264]	; 0x108
 80034ca:	f8d7 3108 	ldr.w	r3, [r7, #264]	; 0x108
 80034ce:	681b      	ldr	r3, [r3, #0]
 80034d0:	f8c7 30f0 	str.w	r3, [r7, #240]	; 0xf0
 80034d4:	f8d7 30f0 	ldr.w	r3, [r7, #240]	; 0xf0
 80034d8:	ba1b      	rev	r3, r3
 80034da:	f8c7 3080 	str.w	r3, [r7, #128]	; 0x80
 80034de:	f8d7 3080 	ldr.w	r3, [r7, #128]	; 0x80
 80034e2:	643b      	str	r3, [r7, #64]	; 0x40
 80034e4:	bf00      	nop
 80034e6:	f8d7 3104 	ldr.w	r3, [r7, #260]	; 0x104
 80034ea:	681b      	ldr	r3, [r3, #0]
 80034ec:	f8c7 30b8 	str.w	r3, [r7, #184]	; 0xb8
 80034f0:	f8d7 30b8 	ldr.w	r3, [r7, #184]	; 0xb8
 80034f4:	ba1b      	rev	r3, r3
 80034f6:	657b      	str	r3, [r7, #84]	; 0x54
 80034f8:	6d7a      	ldr	r2, [r7, #84]	; 0x54
 80034fa:	f107 0314 	add.w	r3, r7, #20
 80034fe:	601a      	str	r2, [r3, #0]
 8003500:	f8d7 3104 	ldr.w	r3, [r7, #260]	; 0x104
 8003504:	3304      	adds	r3, #4
 8003506:	f8c7 3104 	str.w	r3, [r7, #260]	; 0x104
 800350a:	f8d7 3104 	ldr.w	r3, [r7, #260]	; 0x104
 800350e:	681b      	ldr	r3, [r3, #0]
 8003510:	f8c7 30b4 	str.w	r3, [r7, #180]	; 0xb4
 8003514:	f8d7 30b4 	ldr.w	r3, [r7, #180]	; 0xb4
 8003518:	ba1b      	rev	r3, r3
 800351a:	65bb      	str	r3, [r7, #88]	; 0x58
 800351c:	6dba      	ldr	r2, [r7, #88]	; 0x58
 800351e:	f107 0314 	add.w	r3, r7, #20
 8003522:	605a      	str	r2, [r3, #4]
 8003524:	f8d7 3104 	ldr.w	r3, [r7, #260]	; 0x104
 8003528:	3304      	adds	r3, #4
 800352a:	f8c7 3104 	str.w	r3, [r7, #260]	; 0x104
 800352e:	f8d7 3104 	ldr.w	r3, [r7, #260]	; 0x104
 8003532:	681b      	ldr	r3, [r3, #0]
 8003534:	f8c7 30b0 	str.w	r3, [r7, #176]	; 0xb0
 8003538:	f8d7 30b0 	ldr.w	r3, [r7, #176]	; 0xb0
 800353c:	ba1b      	rev	r3, r3
 800353e:	65fb      	str	r3, [r7, #92]	; 0x5c
 8003540:	6dfa      	ldr	r2, [r7, #92]	; 0x5c
 8003542:	f107 0314 	add.w	r3, r7, #20
 8003546:	609a      	str	r2, [r3, #8]
 8003548:	f8d7 3104 	ldr.w	r3, [r7, #260]	; 0x104
 800354c:	3304      	adds	r3, #4
 800354e:	f8c7 3104 	str.w	r3, [r7, #260]	; 0x104
 8003552:	f8d7 3104 	ldr.w	r3, [r7, #260]	; 0x104
 8003556:	681b      	ldr	r3, [r3, #0]
 8003558:	f8c7 30d8 	str.w	r3, [r7, #216]	; 0xd8
 800355c:	f8d7 30d8 	ldr.w	r3, [r7, #216]	; 0xd8
 8003560:	ba1b      	rev	r3, r3
 8003562:	663b      	str	r3, [r7, #96]	; 0x60
 8003564:	6e3a      	ldr	r2, [r7, #96]	; 0x60
 8003566:	f107 0314 	add.w	r3, r7, #20
 800356a:	60da      	str	r2, [r3, #12]
 800356c:	f107 0324 	add.w	r3, r7, #36	; 0x24
 8003570:	4618      	mov	r0, r3
 8003572:	f001 fe4b 	bl	800520c <CRYP_KeyInit>
 8003576:	f107 030f 	add.w	r3, r7, #15
 800357a:	781b      	ldrb	r3, [r3, #0]
 800357c:	2b00      	cmp	r3, #0
 800357e:	d102      	bne.n	8003586 <CRYP_AES_CTR+0x386>
 8003580:	2304      	movs	r3, #4
 8003582:	647b      	str	r3, [r7, #68]	; 0x44
 8003584:	e001      	b.n	800358a <CRYP_AES_CTR+0x38a>
 8003586:	2300      	movs	r3, #0
 8003588:	647b      	str	r3, [r7, #68]	; 0x44
 800358a:	2330      	movs	r3, #48	; 0x30
 800358c:	64bb      	str	r3, [r7, #72]	; 0x48
 800358e:	2380      	movs	r3, #128	; 0x80
 8003590:	64fb      	str	r3, [r7, #76]	; 0x4c
 8003592:	f107 0344 	add.w	r3, r7, #68	; 0x44
 8003596:	4618      	mov	r0, r3
 8003598:	f001 fdd0 	bl	800513c <CRYP_Init>
 800359c:	f107 0314 	add.w	r3, r7, #20
 80035a0:	4618      	mov	r0, r3
 80035a2:	f001 fe81 	bl	80052a8 <CRYP_IVInit>
 80035a6:	f001 fecd 	bl	8005344 <CRYP_FIFOFlush>
 80035aa:	2001      	movs	r0, #1
 80035ac:	f001 feda 	bl	8005364 <CRYP_Cmd>
 80035b0:	f002 f8c4 	bl	800573c <CRYP_GetCmdStatus>
 80035b4:	4603      	mov	r3, r0
 80035b6:	2b00      	cmp	r3, #0
 80035b8:	d101      	bne.n	80035be <CRYP_AES_CTR+0x3be>
 80035ba:	2300      	movs	r3, #0
 80035bc:	e093      	b.n	80036e6 <CRYP_AES_CTR+0x4e6>
 80035be:	2300      	movs	r3, #0
 80035c0:	f8c7 3110 	str.w	r3, [r7, #272]	; 0x110
 80035c4:	e07f      	b.n	80036c6 <CRYP_AES_CTR+0x4c6>
 80035c6:	f8d7 3118 	ldr.w	r3, [r7, #280]	; 0x118
 80035ca:	681b      	ldr	r3, [r3, #0]
 80035cc:	4618      	mov	r0, r3
 80035ce:	f001 fee7 	bl	80053a0 <CRYP_DataIn>
 80035d2:	f8d7 3118 	ldr.w	r3, [r7, #280]	; 0x118
 80035d6:	3304      	adds	r3, #4
 80035d8:	f8c7 3118 	str.w	r3, [r7, #280]	; 0x118
 80035dc:	f8d7 3118 	ldr.w	r3, [r7, #280]	; 0x118
 80035e0:	681b      	ldr	r3, [r3, #0]
 80035e2:	4618      	mov	r0, r3
 80035e4:	f001 fedc 	bl	80053a0 <CRYP_DataIn>
 80035e8:	f8d7 3118 	ldr.w	r3, [r7, #280]	; 0x118
 80035ec:	3304      	adds	r3, #4
 80035ee:	f8c7 3118 	str.w	r3, [r7, #280]	; 0x118
 80035f2:	f8d7 3118 	ldr.w	r3, [r7, #280]	; 0x118
 80035f6:	681b      	ldr	r3, [r3, #0]
 80035f8:	4618      	mov	r0, r3
 80035fa:	f001 fed1 	bl	80053a0 <CRYP_DataIn>
 80035fe:	f8d7 3118 	ldr.w	r3, [r7, #280]	; 0x118
 8003602:	3304      	adds	r3, #4
 8003604:	f8c7 3118 	str.w	r3, [r7, #280]	; 0x118
 8003608:	f8d7 3118 	ldr.w	r3, [r7, #280]	; 0x118
 800360c:	681b      	ldr	r3, [r3, #0]
 800360e:	4618      	mov	r0, r3
 8003610:	f001 fec6 	bl	80053a0 <CRYP_DataIn>
 8003614:	f8d7 3118 	ldr.w	r3, [r7, #280]	; 0x118
 8003618:	3304      	adds	r3, #4
 800361a:	f8c7 3118 	str.w	r3, [r7, #280]	; 0x118
 800361e:	f107 0310 	add.w	r3, r7, #16
 8003622:	2200      	movs	r2, #0
 8003624:	601a      	str	r2, [r3, #0]
 8003626:	2010      	movs	r0, #16
 8003628:	f002 f8a2 	bl	8005770 <CRYP_GetFlagStatus>
 800362c:	4603      	mov	r3, r0
 800362e:	f8c7 310c 	str.w	r3, [r7, #268]	; 0x10c
 8003632:	f107 0310 	add.w	r3, r7, #16
 8003636:	681b      	ldr	r3, [r3, #0]
 8003638:	1c5a      	adds	r2, r3, #1
 800363a:	f107 0310 	add.w	r3, r7, #16
 800363e:	601a      	str	r2, [r3, #0]
 8003640:	f107 0310 	add.w	r3, r7, #16
 8003644:	681b      	ldr	r3, [r3, #0]
 8003646:	f5b3 3f80 	cmp.w	r3, #65536	; 0x10000
 800364a:	d003      	beq.n	8003654 <CRYP_AES_CTR+0x454>
 800364c:	f8d7 310c 	ldr.w	r3, [r7, #268]	; 0x10c
 8003650:	2b00      	cmp	r3, #0
 8003652:	d1e8      	bne.n	8003626 <CRYP_AES_CTR+0x426>
 8003654:	f8d7 310c 	ldr.w	r3, [r7, #268]	; 0x10c
 8003658:	2b00      	cmp	r3, #0
 800365a:	d003      	beq.n	8003664 <CRYP_AES_CTR+0x464>
 800365c:	2300      	movs	r3, #0
 800365e:	f887 311f 	strb.w	r3, [r7, #287]	; 0x11f
 8003662:	e02b      	b.n	80036bc <CRYP_AES_CTR+0x4bc>
 8003664:	f8d7 4114 	ldr.w	r4, [r7, #276]	; 0x114
 8003668:	f001 feaa 	bl	80053c0 <CRYP_DataOut>
 800366c:	4603      	mov	r3, r0
 800366e:	6023      	str	r3, [r4, #0]
 8003670:	f8d7 3114 	ldr.w	r3, [r7, #276]	; 0x114
 8003674:	3304      	adds	r3, #4
 8003676:	f8c7 3114 	str.w	r3, [r7, #276]	; 0x114
 800367a:	f8d7 4114 	ldr.w	r4, [r7, #276]	; 0x114
 800367e:	f001 fe9f 	bl	80053c0 <CRYP_DataOut>
 8003682:	4603      	mov	r3, r0
 8003684:	6023      	str	r3, [r4, #0]
 8003686:	f8d7 3114 	ldr.w	r3, [r7, #276]	; 0x114
 800368a:	3304      	adds	r3, #4
 800368c:	f8c7 3114 	str.w	r3, [r7, #276]	; 0x114
 8003690:	f8d7 4114 	ldr.w	r4, [r7, #276]	; 0x114
 8003694:	f001 fe94 	bl	80053c0 <CRYP_DataOut>
 8003698:	4603      	mov	r3, r0
 800369a:	6023      	str	r3, [r4, #0]
 800369c:	f8d7 3114 	ldr.w	r3, [r7, #276]	; 0x114
 80036a0:	3304      	adds	r3, #4
 80036a2:	f8c7 3114 	str.w	r3, [r7, #276]	; 0x114
 80036a6:	f8d7 4114 	ldr.w	r4, [r7, #276]	; 0x114
 80036aa:	f001 fe89 	bl	80053c0 <CRYP_DataOut>
 80036ae:	4603      	mov	r3, r0
 80036b0:	6023      	str	r3, [r4, #0]
 80036b2:	f8d7 3114 	ldr.w	r3, [r7, #276]	; 0x114
 80036b6:	3304      	adds	r3, #4
 80036b8:	f8c7 3114 	str.w	r3, [r7, #276]	; 0x114
 80036bc:	f8d7 3110 	ldr.w	r3, [r7, #272]	; 0x110
 80036c0:	3310      	adds	r3, #16
 80036c2:	f8c7 3110 	str.w	r3, [r7, #272]	; 0x110
 80036c6:	f8d7 2110 	ldr.w	r2, [r7, #272]	; 0x110
 80036ca:	f8d7 3134 	ldr.w	r3, [r7, #308]	; 0x134
 80036ce:	429a      	cmp	r2, r3
 80036d0:	d204      	bcs.n	80036dc <CRYP_AES_CTR+0x4dc>
 80036d2:	f897 311f 	ldrb.w	r3, [r7, #287]	; 0x11f
 80036d6:	2b00      	cmp	r3, #0
 80036d8:	f47f af75 	bne.w	80035c6 <CRYP_AES_CTR+0x3c6>
 80036dc:	2000      	movs	r0, #0
 80036de:	f001 fe41 	bl	8005364 <CRYP_Cmd>
 80036e2:	f897 311f 	ldrb.w	r3, [r7, #287]	; 0x11f
 80036e6:	4618      	mov	r0, r3
 80036e8:	f507 7792 	add.w	r7, r7, #292	; 0x124
 80036ec:	46bd      	mov	sp, r7
 80036ee:	bd90      	pop	{r4, r7, pc}

080036f0 <CRYP_AES_GCM>:
 80036f0:	e92d 4ff0 	stmdb	sp!, {r4, r5, r6, r7, r8, r9, sl, fp, lr}
 80036f4:	b0e3      	sub	sp, #396	; 0x18c
 80036f6:	af00      	add	r7, sp, #0
 80036f8:	4604      	mov	r4, r0
 80036fa:	f107 0010 	add.w	r0, r7, #16
 80036fe:	6001      	str	r1, [r0, #0]
 8003700:	f107 010c 	add.w	r1, r7, #12
 8003704:	600a      	str	r2, [r1, #0]
 8003706:	4619      	mov	r1, r3
 8003708:	f107 0317 	add.w	r3, r7, #23
 800370c:	4622      	mov	r2, r4
 800370e:	701a      	strb	r2, [r3, #0]
 8003710:	f107 0314 	add.w	r3, r7, #20
 8003714:	460a      	mov	r2, r1
 8003716:	801a      	strh	r2, [r3, #0]
 8003718:	f107 031c 	add.w	r3, r7, #28
 800371c:	2200      	movs	r2, #0
 800371e:	601a      	str	r2, [r3, #0]
 8003720:	2300      	movs	r3, #0
 8003722:	f8c7 3170 	str.w	r3, [r7, #368]	; 0x170
 8003726:	2301      	movs	r3, #1
 8003728:	f887 3187 	strb.w	r3, [r7, #391]	; 0x187
 800372c:	f107 030c 	add.w	r3, r7, #12
 8003730:	681b      	ldr	r3, [r3, #0]
 8003732:	f8c7 316c 	str.w	r3, [r7, #364]	; 0x16c
 8003736:	f8d7 31b0 	ldr.w	r3, [r7, #432]	; 0x1b0
 800373a:	f8c7 3180 	str.w	r3, [r7, #384]	; 0x180
 800373e:	f8d7 31c0 	ldr.w	r3, [r7, #448]	; 0x1c0
 8003742:	f8c7 317c 	str.w	r3, [r7, #380]	; 0x17c
 8003746:	f107 0310 	add.w	r3, r7, #16
 800374a:	681b      	ldr	r3, [r3, #0]
 800374c:	f8c7 3168 	str.w	r3, [r7, #360]	; 0x168
 8003750:	f8d7 31b8 	ldr.w	r3, [r7, #440]	; 0x1b8
 8003754:	f8c7 3178 	str.w	r3, [r7, #376]	; 0x178
 8003758:	f8d7 31c4 	ldr.w	r3, [r7, #452]	; 0x1c4
 800375c:	f8c7 3164 	str.w	r3, [r7, #356]	; 0x164
 8003760:	f8d7 31bc 	ldr.w	r3, [r7, #444]	; 0x1bc
 8003764:	00db      	lsls	r3, r3, #3
 8003766:	f04f 0400 	mov.w	r4, #0
 800376a:	f507 72ac 	add.w	r2, r7, #344	; 0x158
 800376e:	e9c2 3400 	strd	r3, r4, [r2]
 8003772:	f8d7 31b4 	ldr.w	r3, [r7, #436]	; 0x1b4
 8003776:	00db      	lsls	r3, r3, #3
 8003778:	f04f 0400 	mov.w	r4, #0
 800377c:	f507 72a8 	add.w	r2, r7, #336	; 0x150
 8003780:	e9c2 3400 	strd	r3, r4, [r2]
 8003784:	2300      	movs	r3, #0
 8003786:	f8c7 3174 	str.w	r3, [r7, #372]	; 0x174
 800378a:	f107 0330 	add.w	r3, r7, #48	; 0x30
 800378e:	4618      	mov	r0, r3
 8003790:	f001 fd68 	bl	8005264 <CRYP_KeyStructInit>
 8003794:	f107 0314 	add.w	r3, r7, #20
 8003798:	881b      	ldrh	r3, [r3, #0]
 800379a:	2bc0      	cmp	r3, #192	; 0xc0
 800379c:	d056      	beq.n	800384c <CRYP_AES_GCM+0x15c>
 800379e:	f5b3 7f80 	cmp.w	r3, #256	; 0x100
 80037a2:	f000 80cc 	beq.w	800393e <CRYP_AES_GCM+0x24e>
 80037a6:	2b80      	cmp	r3, #128	; 0x80
 80037a8:	d000      	beq.n	80037ac <CRYP_AES_GCM+0xbc>
 80037aa:	e169      	b.n	8003a80 <CRYP_AES_GCM+0x390>
 80037ac:	f107 0350 	add.w	r3, r7, #80	; 0x50
 80037b0:	2200      	movs	r2, #0
 80037b2:	60da      	str	r2, [r3, #12]
 80037b4:	f8d7 316c 	ldr.w	r3, [r7, #364]	; 0x16c
 80037b8:	681b      	ldr	r3, [r3, #0]
 80037ba:	f8c7 3148 	str.w	r3, [r7, #328]	; 0x148
 80037be:	f8d7 3148 	ldr.w	r3, [r7, #328]	; 0x148
 80037c2:	ba1b      	rev	r3, r3
 80037c4:	f8c7 30c8 	str.w	r3, [r7, #200]	; 0xc8
 80037c8:	f8d7 20c8 	ldr.w	r2, [r7, #200]	; 0xc8
 80037cc:	f107 0330 	add.w	r3, r7, #48	; 0x30
 80037d0:	611a      	str	r2, [r3, #16]
 80037d2:	f8d7 316c 	ldr.w	r3, [r7, #364]	; 0x16c
 80037d6:	3304      	adds	r3, #4
 80037d8:	f8c7 316c 	str.w	r3, [r7, #364]	; 0x16c
 80037dc:	f8d7 316c 	ldr.w	r3, [r7, #364]	; 0x16c
 80037e0:	681b      	ldr	r3, [r3, #0]
 80037e2:	f8c7 3144 	str.w	r3, [r7, #324]	; 0x144
 80037e6:	f8d7 3144 	ldr.w	r3, [r7, #324]	; 0x144
 80037ea:	ba1b      	rev	r3, r3
 80037ec:	f8c7 30cc 	str.w	r3, [r7, #204]	; 0xcc
 80037f0:	f8d7 20cc 	ldr.w	r2, [r7, #204]	; 0xcc
 80037f4:	f107 0330 	add.w	r3, r7, #48	; 0x30
 80037f8:	615a      	str	r2, [r3, #20]
 80037fa:	f8d7 316c 	ldr.w	r3, [r7, #364]	; 0x16c
 80037fe:	3304      	adds	r3, #4
 8003800:	f8c7 316c 	str.w	r3, [r7, #364]	; 0x16c
 8003804:	f8d7 316c 	ldr.w	r3, [r7, #364]	; 0x16c
 8003808:	681b      	ldr	r3, [r3, #0]
 800380a:	f8c7 3140 	str.w	r3, [r7, #320]	; 0x140
 800380e:	f8d7 3140 	ldr.w	r3, [r7, #320]	; 0x140
 8003812:	ba1b      	rev	r3, r3
 8003814:	f8c7 30d0 	str.w	r3, [r7, #208]	; 0xd0
 8003818:	f8d7 20d0 	ldr.w	r2, [r7, #208]	; 0xd0
 800381c:	f107 0330 	add.w	r3, r7, #48	; 0x30
 8003820:	619a      	str	r2, [r3, #24]
 8003822:	f8d7 316c 	ldr.w	r3, [r7, #364]	; 0x16c
 8003826:	3304      	adds	r3, #4
 8003828:	f8c7 316c 	str.w	r3, [r7, #364]	; 0x16c
 800382c:	f8d7 316c 	ldr.w	r3, [r7, #364]	; 0x16c
 8003830:	681b      	ldr	r3, [r3, #0]
 8003832:	f8c7 30d8 	str.w	r3, [r7, #216]	; 0xd8
 8003836:	f8d7 30d8 	ldr.w	r3, [r7, #216]	; 0xd8
 800383a:	ba1b      	rev	r3, r3
 800383c:	f8c7 30d4 	str.w	r3, [r7, #212]	; 0xd4
 8003840:	f8d7 20d4 	ldr.w	r2, [r7, #212]	; 0xd4
 8003844:	f107 0330 	add.w	r3, r7, #48	; 0x30
 8003848:	61da      	str	r2, [r3, #28]
 800384a:	e119      	b.n	8003a80 <CRYP_AES_GCM+0x390>
 800384c:	f107 0350 	add.w	r3, r7, #80	; 0x50
 8003850:	f44f 7280 	mov.w	r2, #256	; 0x100
 8003854:	60da      	str	r2, [r3, #12]
 8003856:	f8d7 316c 	ldr.w	r3, [r7, #364]	; 0x16c
 800385a:	681b      	ldr	r3, [r3, #0]
 800385c:	f8c7 3138 	str.w	r3, [r7, #312]	; 0x138
 8003860:	f8d7 3138 	ldr.w	r3, [r7, #312]	; 0x138
 8003864:	ba1b      	rev	r3, r3
 8003866:	f8c7 30b0 	str.w	r3, [r7, #176]	; 0xb0
 800386a:	f8d7 20b0 	ldr.w	r2, [r7, #176]	; 0xb0
 800386e:	f107 0330 	add.w	r3, r7, #48	; 0x30
 8003872:	609a      	str	r2, [r3, #8]
 8003874:	f8d7 316c 	ldr.w	r3, [r7, #364]	; 0x16c
 8003878:	3304      	adds	r3, #4
 800387a:	f8c7 316c 	str.w	r3, [r7, #364]	; 0x16c
 800387e:	f8d7 316c 	ldr.w	r3, [r7, #364]	; 0x16c
 8003882:	681b      	ldr	r3, [r3, #0]
 8003884:	f8c7 3134 	str.w	r3, [r7, #308]	; 0x134
 8003888:	f8d7 3134 	ldr.w	r3, [r7, #308]	; 0x134
 800388c:	ba1b      	rev	r3, r3
 800388e:	f8c7 30b4 	str.w	r3, [r7, #180]	; 0xb4
 8003892:	f8d7 20b4 	ldr.w	r2, [r7, #180]	; 0xb4
 8003896:	f107 0330 	add.w	r3, r7, #48	; 0x30
 800389a:	60da      	str	r2, [r3, #12]
 800389c:	f8d7 316c 	ldr.w	r3, [r7, #364]	; 0x16c
 80038a0:	3304      	adds	r3, #4
 80038a2:	f8c7 316c 	str.w	r3, [r7, #364]	; 0x16c
 80038a6:	f8d7 316c 	ldr.w	r3, [r7, #364]	; 0x16c
 80038aa:	681b      	ldr	r3, [r3, #0]
 80038ac:	f8c7 3130 	str.w	r3, [r7, #304]	; 0x130
 80038b0:	f8d7 3130 	ldr.w	r3, [r7, #304]	; 0x130
 80038b4:	ba1b      	rev	r3, r3
 80038b6:	f8c7 30b8 	str.w	r3, [r7, #184]	; 0xb8
 80038ba:	f8d7 20b8 	ldr.w	r2, [r7, #184]	; 0xb8
 80038be:	f107 0330 	add.w	r3, r7, #48	; 0x30
 80038c2:	611a      	str	r2, [r3, #16]
 80038c4:	f8d7 316c 	ldr.w	r3, [r7, #364]	; 0x16c
 80038c8:	3304      	adds	r3, #4
 80038ca:	f8c7 316c 	str.w	r3, [r7, #364]	; 0x16c
 80038ce:	f8d7 316c 	ldr.w	r3, [r7, #364]	; 0x16c
 80038d2:	681b      	ldr	r3, [r3, #0]
 80038d4:	f8c7 312c 	str.w	r3, [r7, #300]	; 0x12c
 80038d8:	f8d7 312c 	ldr.w	r3, [r7, #300]	; 0x12c
 80038dc:	ba1b      	rev	r3, r3
 80038de:	f8c7 30bc 	str.w	r3, [r7, #188]	; 0xbc
 80038e2:	f8d7 20bc 	ldr.w	r2, [r7, #188]	; 0xbc
 80038e6:	f107 0330 	add.w	r3, r7, #48	; 0x30
 80038ea:	615a      	str	r2, [r3, #20]
 80038ec:	f8d7 316c 	ldr.w	r3, [r7, #364]	; 0x16c
 80038f0:	3304      	adds	r3, #4
 80038f2:	f8c7 316c 	str.w	r3, [r7, #364]	; 0x16c
 80038f6:	f8d7 316c 	ldr.w	r3, [r7, #364]	; 0x16c
 80038fa:	681b      	ldr	r3, [r3, #0]
 80038fc:	f8c7 3128 	str.w	r3, [r7, #296]	; 0x128
 8003900:	f8d7 3128 	ldr.w	r3, [r7, #296]	; 0x128
 8003904:	ba1b      	rev	r3, r3
 8003906:	f8c7 30c0 	str.w	r3, [r7, #192]	; 0xc0
 800390a:	f8d7 20c0 	ldr.w	r2, [r7, #192]	; 0xc0
 800390e:	f107 0330 	add.w	r3, r7, #48	; 0x30
 8003912:	619a      	str	r2, [r3, #24]
 8003914:	f8d7 316c 	ldr.w	r3, [r7, #364]	; 0x16c
 8003918:	3304      	adds	r3, #4
 800391a:	f8c7 316c 	str.w	r3, [r7, #364]	; 0x16c
 800391e:	f8d7 316c 	ldr.w	r3, [r7, #364]	; 0x16c
 8003922:	681b      	ldr	r3, [r3, #0]
 8003924:	f8c7 314c 	str.w	r3, [r7, #332]	; 0x14c
 8003928:	f8d7 314c 	ldr.w	r3, [r7, #332]	; 0x14c
 800392c:	ba1b      	rev	r3, r3
 800392e:	f8c7 30c4 	str.w	r3, [r7, #196]	; 0xc4
 8003932:	f8d7 20c4 	ldr.w	r2, [r7, #196]	; 0xc4
 8003936:	f107 0330 	add.w	r3, r7, #48	; 0x30
 800393a:	61da      	str	r2, [r3, #28]
 800393c:	e0a0      	b.n	8003a80 <CRYP_AES_GCM+0x390>
 800393e:	f107 0350 	add.w	r3, r7, #80	; 0x50
 8003942:	f44f 7200 	mov.w	r2, #512	; 0x200
 8003946:	60da      	str	r2, [r3, #12]
 8003948:	f8d7 316c 	ldr.w	r3, [r7, #364]	; 0x16c
 800394c:	681b      	ldr	r3, [r3, #0]
 800394e:	f8c7 3120 	str.w	r3, [r7, #288]	; 0x120
 8003952:	f8d7 3120 	ldr.w	r3, [r7, #288]	; 0x120
 8003956:	ba1b      	rev	r3, r3
 8003958:	f8c7 3090 	str.w	r3, [r7, #144]	; 0x90
 800395c:	f8d7 2090 	ldr.w	r2, [r7, #144]	; 0x90
 8003960:	f107 0330 	add.w	r3, r7, #48	; 0x30
 8003964:	601a      	str	r2, [r3, #0]
 8003966:	f8d7 316c 	ldr.w	r3, [r7, #364]	; 0x16c
 800396a:	3304      	adds	r3, #4
 800396c:	f8c7 316c 	str.w	r3, [r7, #364]	; 0x16c
 8003970:	f8d7 316c 	ldr.w	r3, [r7, #364]	; 0x16c
 8003974:	681b      	ldr	r3, [r3, #0]
 8003976:	f8c7 311c 	str.w	r3, [r7, #284]	; 0x11c
 800397a:	f8d7 311c 	ldr.w	r3, [r7, #284]	; 0x11c
 800397e:	ba1b      	rev	r3, r3
 8003980:	f8c7 3094 	str.w	r3, [r7, #148]	; 0x94
 8003984:	f8d7 2094 	ldr.w	r2, [r7, #148]	; 0x94
 8003988:	f107 0330 	add.w	r3, r7, #48	; 0x30
 800398c:	605a      	str	r2, [r3, #4]
 800398e:	f8d7 316c 	ldr.w	r3, [r7, #364]	; 0x16c
 8003992:	3304      	adds	r3, #4
 8003994:	f8c7 316c 	str.w	r3, [r7, #364]	; 0x16c
 8003998:	f8d7 316c 	ldr.w	r3, [r7, #364]	; 0x16c
 800399c:	681b      	ldr	r3, [r3, #0]
 800399e:	f8c7 3118 	str.w	r3, [r7, #280]	; 0x118
 80039a2:	f8d7 3118 	ldr.w	r3, [r7, #280]	; 0x118
 80039a6:	ba1b      	rev	r3, r3
 80039a8:	f8c7 3098 	str.w	r3, [r7, #152]	; 0x98
 80039ac:	f8d7 2098 	ldr.w	r2, [r7, #152]	; 0x98
 80039b0:	f107 0330 	add.w	r3, r7, #48	; 0x30
 80039b4:	609a      	str	r2, [r3, #8]
 80039b6:	f8d7 316c 	ldr.w	r3, [r7, #364]	; 0x16c
 80039ba:	3304      	adds	r3, #4
 80039bc:	f8c7 316c 	str.w	r3, [r7, #364]	; 0x16c
 80039c0:	f8d7 316c 	ldr.w	r3, [r7, #364]	; 0x16c
 80039c4:	681b      	ldr	r3, [r3, #0]
 80039c6:	f8c7 3114 	str.w	r3, [r7, #276]	; 0x114
 80039ca:	f8d7 3114 	ldr.w	r3, [r7, #276]	; 0x114
 80039ce:	ba1b      	rev	r3, r3
 80039d0:	f8c7 309c 	str.w	r3, [r7, #156]	; 0x9c
 80039d4:	f8d7 209c 	ldr.w	r2, [r7, #156]	; 0x9c
 80039d8:	f107 0330 	add.w	r3, r7, #48	; 0x30
 80039dc:	60da      	str	r2, [r3, #12]
 80039de:	f8d7 316c 	ldr.w	r3, [r7, #364]	; 0x16c
 80039e2:	3304      	adds	r3, #4
 80039e4:	f8c7 316c 	str.w	r3, [r7, #364]	; 0x16c
 80039e8:	f8d7 316c 	ldr.w	r3, [r7, #364]	; 0x16c
 80039ec:	681b      	ldr	r3, [r3, #0]
 80039ee:	f8c7 3110 	str.w	r3, [r7, #272]	; 0x110
 80039f2:	f8d7 3110 	ldr.w	r3, [r7, #272]	; 0x110
 80039f6:	ba1b      	rev	r3, r3
 80039f8:	f8c7 30a0 	str.w	r3, [r7, #160]	; 0xa0
 80039fc:	f8d7 20a0 	ldr.w	r2, [r7, #160]	; 0xa0
 8003a00:	f107 0330 	add.w	r3, r7, #48	; 0x30
 8003a04:	611a      	str	r2, [r3, #16]
 8003a06:	f8d7 316c 	ldr.w	r3, [r7, #364]	; 0x16c
 8003a0a:	3304      	adds	r3, #4
 8003a0c:	f8c7 316c 	str.w	r3, [r7, #364]	; 0x16c
 8003a10:	f8d7 316c 	ldr.w	r3, [r7, #364]	; 0x16c
 8003a14:	681b      	ldr	r3, [r3, #0]
 8003a16:	f8c7 310c 	str.w	r3, [r7, #268]	; 0x10c
 8003a1a:	f8d7 310c 	ldr.w	r3, [r7, #268]	; 0x10c
 8003a1e:	ba1b      	rev	r3, r3
 8003a20:	f8c7 30a4 	str.w	r3, [r7, #164]	; 0xa4
 8003a24:	f8d7 20a4 	ldr.w	r2, [r7, #164]	; 0xa4
 8003a28:	f107 0330 	add.w	r3, r7, #48	; 0x30
 8003a2c:	615a      	str	r2, [r3, #20]
 8003a2e:	f8d7 316c 	ldr.w	r3, [r7, #364]	; 0x16c
 8003a32:	3304      	adds	r3, #4
 8003a34:	f8c7 316c 	str.w	r3, [r7, #364]	; 0x16c
 8003a38:	f8d7 316c 	ldr.w	r3, [r7, #364]	; 0x16c
 8003a3c:	681b      	ldr	r3, [r3, #0]
 8003a3e:	f8c7 3108 	str.w	r3, [r7, #264]	; 0x108
 8003a42:	f8d7 3108 	ldr.w	r3, [r7, #264]	; 0x108
 8003a46:	ba1b      	rev	r3, r3
 8003a48:	f8c7 30a8 	str.w	r3, [r7, #168]	; 0xa8
 8003a4c:	f8d7 20a8 	ldr.w	r2, [r7, #168]	; 0xa8
 8003a50:	f107 0330 	add.w	r3, r7, #48	; 0x30
 8003a54:	619a      	str	r2, [r3, #24]
 8003a56:	f8d7 316c 	ldr.w	r3, [r7, #364]	; 0x16c
 8003a5a:	3304      	adds	r3, #4
 8003a5c:	f8c7 316c 	str.w	r3, [r7, #364]	; 0x16c
 8003a60:	f8d7 316c 	ldr.w	r3, [r7, #364]	; 0x16c
 8003a64:	681b      	ldr	r3, [r3, #0]
 8003a66:	f8c7 313c 	str.w	r3, [r7, #316]	; 0x13c
 8003a6a:	f8d7 313c 	ldr.w	r3, [r7, #316]	; 0x13c
 8003a6e:	ba1b      	rev	r3, r3
 8003a70:	f8c7 30ac 	str.w	r3, [r7, #172]	; 0xac
 8003a74:	f8d7 20ac 	ldr.w	r2, [r7, #172]	; 0xac
 8003a78:	f107 0330 	add.w	r3, r7, #48	; 0x30
 8003a7c:	61da      	str	r2, [r3, #28]
 8003a7e:	bf00      	nop
 8003a80:	f8d7 3168 	ldr.w	r3, [r7, #360]	; 0x168
 8003a84:	681b      	ldr	r3, [r3, #0]
 8003a86:	f8c7 3100 	str.w	r3, [r7, #256]	; 0x100
 8003a8a:	f8d7 3100 	ldr.w	r3, [r7, #256]	; 0x100
 8003a8e:	ba1a      	rev	r2, r3
 8003a90:	f107 0380 	add.w	r3, r7, #128	; 0x80
 8003a94:	601a      	str	r2, [r3, #0]
 8003a96:	f107 0380 	add.w	r3, r7, #128	; 0x80
 8003a9a:	681a      	ldr	r2, [r3, #0]
 8003a9c:	f107 0320 	add.w	r3, r7, #32
 8003aa0:	601a      	str	r2, [r3, #0]
 8003aa2:	f8d7 3168 	ldr.w	r3, [r7, #360]	; 0x168
 8003aa6:	3304      	adds	r3, #4
 8003aa8:	f8c7 3168 	str.w	r3, [r7, #360]	; 0x168
 8003aac:	f8d7 3168 	ldr.w	r3, [r7, #360]	; 0x168
 8003ab0:	681b      	ldr	r3, [r3, #0]
 8003ab2:	f8c7 30fc 	str.w	r3, [r7, #252]	; 0xfc
 8003ab6:	f8d7 30fc 	ldr.w	r3, [r7, #252]	; 0xfc
 8003aba:	ba1a      	rev	r2, r3
 8003abc:	f107 0384 	add.w	r3, r7, #132	; 0x84
